(dp1
S'output'
p2
S"<class 'sqlite3.OperationalError'> no such column: time"
p3
sS'layer'
p4
S'F:\\Github\\python\\HomeAutomation\\web2py\\applications\\HomeAutomation\\views\\settings/thermostat.html'
p5
sS'code'
p6
S'response.write(\'<!DOCTYPE html>\\r\\n<html>\\r\\n<head lang="en">\\r\\n    <meta charset="UTF-8">\\r\\n    <title></title>\\r\\n    <link rel="stylesheet" type="text/css" href="\', escape=False)\nresponse.write(URL(\'static\',\'css/default.css\'))\nresponse.write(\'">\\r\\n</head>\\r\\n<body>\\r\\n<div class="Table">\\r\\n    <div class="Title"><p>Weekly Thermostat Schedule</p></div>\\r\\n    <div id="weekly" class="Heading">\\r\\n        <div id="Sunday" class="Cell"><p>Sunday</p></div>\\r\\n        <div id="Monday" class="Cell"><p>Monday</p></div>\\r\\n        <div id="Tuesday" class="Cell"><p>Tuesday</p></div>\\r\\n        <div id="Wednesday" class="Cell"><p>Wednesday</p></div>\\r\\n        <div id="Thursday" class="Cell"><p>Thursday</p></div>\\r\\n        <div id="Friday" class="Cell"><p>Friday</p></div>\\r\\n        <div id="Saturday" class="Cell"><p>Saturday</p></div>\\r\\n    </div>\\r\\n    <div id="schedule" class="Row">\\r\\n        <div id="SundayList" class="Cell">\\r\\n            <ul id="SundayList" class="Temp">\\r\\n                <li>\\r\\n                    <a href=""><p></p></a>\\r\\n                </li>\\r\\n            </ul>\\r\\n        </div>\\r\\n        <div id="MondayList" class="Cell">\\r\\n            <ul id="MondayList" class="Temp">\\r\\n                <li>\\r\\n                    <a href=""><p>\', escape=False)\nfor row in db(db.temperatures.day_of_week==\'Monday\').select(orderby=\'time\'):\n    response.write(\'\\r\\n                        <li>\', escape=False)\n    response.write(row.time_start)\n    response.write(\' -- \', escape=False)\n    response.write(row.temperature)\n    response.write(\'\\xe2\\x84\\x89\\r\\n                        </li>\', escape=False)\n    pass\nresponse.write(\'</p></a>\\r\\n                </li>\\r\\n            </ul>\\r\\n        </div>\\r\\n        <div id="TuesdayList" class="Cell">\\r\\n            <ul id="TuesdayList" class="Temp">\\r\\n                <li>\\r\\n                    <a href=""><p>08:00 AM - 70</p></a>\\r\\n                </li>\\r\\n            </ul>\\r\\n        </div>\\r\\n        <div id="WednesdayList" class="Cell">\\r\\n            <ul id="WednesdayList" class="Temp">\\r\\n                <li>\\r\\n                    <a href=""><p>08:00 AM - 70</p></a>\\r\\n                </li>\\r\\n            </ul>\\r\\n        </div>\\r\\n        <div id="ThursdayList" class="Cell">\\r\\n            <ul id="ThursdayList" class="Temp">\\r\\n                <li>\\r\\n                    <a href=""><p>08:00 AM - 70</p></a>\\r\\n                </li>\\r\\n            </ul>\\r\\n        </div>\\r\\n        <div id="FridayList" class="Cell">\\r\\n            <ul id="FridayList" class="Temp">\\r\\n                <li>\\r\\n                    <a href=""><p>08:00 AM - 70</p></a>\\r\\n                </li>\\r\\n            </ul>\\r\\n        </div>\\r\\n        <div id="SaturdayList" class="Cell">\\r\\n            <ul id="SaturdayList" class="Temp">\\r\\n                <li>\\r\\n                    <a href=""><p>08:00 AM - 70</p></a>\\r\\n                </li>\\r\\n            </ul>\\r\\n        </div>\\r\\n    </div>\\r\\n</div>\\r\\n<br>\\r\\n<hr>\\r\\n<br>\\r\\n<a href="form.html">Add new setting</a>\\r\\n\\r\\n</body>\\r\\n</html>\\r\\n\', escape=False)'
p7
sS'snapshot'
p8
(dp9
S'exception'
p10
(dp11
S'__module__'
p12
S"'sqlite3'"
p13
sS'__getslice__'
p14
S"<method-wrapper '__getslice__' of OperationalError object>"
p15
sS'__str__'
p16
S"<method-wrapper '__str__' of OperationalError object>"
p17
sS'__reduce__'
p18
S'<built-in method __reduce__ of OperationalError object>'
p19
sS'__dict__'
p20
S'{}'
p21
sS'__sizeof__'
p22
S'<built-in method __sizeof__ of OperationalError object>'
p23
sS'__weakref__'
p24
S'None'
p25
sS'__init__'
p26
S"<method-wrapper '__init__' of OperationalError object>"
p27
sS'__setattr__'
p28
S"<method-wrapper '__setattr__' of OperationalError object>"
p29
sS'__reduce_ex__'
p30
S'<built-in method __reduce_ex__ of OperationalError object>'
p31
sS'__new__'
p32
S'<built-in method __new__ of type object>'
p33
sS'__format__'
p34
S'<built-in method __format__ of OperationalError object>'
p35
sS'__class__'
p36
S"<class 'sqlite3.OperationalError'>"
p37
sS'__doc__'
p38
S'None'
p39
sS'__getitem__'
p40
S"<method-wrapper '__getitem__' of OperationalError object>"
p41
sS'__setstate__'
p42
S'<built-in method __setstate__ of OperationalError object>'
p43
sS'__getattribute__'
p44
S"<method-wrapper '__getattribute__' of OperationalError object>"
p45
sS'args'
p46
S"('no such column: time',)"
p47
sS'__subclasshook__'
p48
S'<built-in method __subclasshook__ of type object>'
p49
sS'__unicode__'
p50
S'<built-in method __unicode__ of OperationalError object>'
p51
sS'__delattr__'
p52
S"<method-wrapper '__delattr__' of OperationalError object>"
p53
sS'__repr__'
p54
S"<method-wrapper '__repr__' of OperationalError object>"
p55
sS'__hash__'
p56
S"<method-wrapper '__hash__' of OperationalError object>"
p57
ssS'evalue'
p58
S'no such column: time'
p59
sS'request'
p60
cgluon.html
XML_unpickle
p61
(S'sys\x00\x00<div><table><tr><td style="font-weight:bold;vertical-align:top;">ajax</td><td style="vertical-align:top;">:</td><td><div>False</div></td></tr><tr><td style="font-weight:bold;vertical-align:top;">application</td><td style="vertical-align:top;">:</td><td><div>HomeAutomation</div></td></tr><tr><td style="font-weight:bold;vertical-align:top;">args</td><td style="vertical-align:top;">:</td><td><div><table></table></div></td></tr><tr><td style="font-weight:bold;vertical-align:top;">cid</td><td style="vertical-align:top;">:</td><td><div>None</div></td></tr><tr><td style="font-weight:bold;vertical-align:top;">client</td><td style="vertical-align:top;">:</td><td><div>127.0.0.1</div></td></tr><tr><td style="font-weight:bold;vertical-align:top;">controller</td><td style="vertical-align:top;">:</td><td><div>settings</div></td></tr><tr><td style="font-weight:bold;vertical-align:top;">cookies</td><td style="vertical-align:top;">:</td><td><div><table><tr><td style="font-weight:bold;vertical-align:top;">a2404_pages</td><td style="vertical-align:top;">:</td><td><div>10<table><tr><td style="font-weight:bold;vertical-align:top;">comment</td><td style="vertical-align:top;">:</td><td><div></div></td></tr><tr><td style="font-weight:bold;vertical-align:top;">domain</td><td style="vertical-align:top;">:</td><td><div></div></td></tr><tr><td style="font-weight:bold;vertical-align:top;">expires</td><td style="vertical-align:top;">:</td><td><div></div></td></tr><tr><td style="font-weight:bold;vertical-align:top;">httponly</td><td style="vertical-align:top;">:</td><td><div></div></td></tr><tr><td style="font-weight:bold;vertical-align:top;">max-age</td><td style="vertical-align:top;">:</td><td><div></div></td></tr><tr><td style="font-weight:bold;vertical-align:top;">path</td><td style="vertical-align:top;">:</td><td><div></div></td></tr><tr><td style="font-weight:bold;vertical-align:top;">secure</td><td style="vertical-align:top;">:</td><td><div></div></td></tr><tr><td style="font-weight:bold;vertical-align:top;">version</td><td style="vertical-align:top;">:</td><td><div></div></td></tr></table></div></td></tr><tr><td style="font-weight:bold;vertical-align:top;">a2404_times</td><td style="vertical-align:top;">:</td><td><div>6<table><tr><td style="font-weight:bold;vertical-align:top;">comment</td><td style="vertical-align:top;">:</td><td><div></div></td></tr><tr><td style="font-weight:bold;vertical-align:top;">domain</td><td style="vertical-align:top;">:</td><td><div></div></td></tr><tr><td style="font-weight:bold;vertical-align:top;">expires</td><td style="vertical-align:top;">:</td><td><div></div></td></tr><tr><td style="font-weight:bold;vertical-align:top;">httponly</td><td style="vertical-align:top;">:</td><td><div></div></td></tr><tr><td style="font-weight:bold;vertical-align:top;">max-age</td><td style="vertical-align:top;">:</td><td><div></div></td></tr><tr><td style="font-weight:bold;vertical-align:top;">path</td><td style="vertical-align:top;">:</td><td><div></div></td></tr><tr><td style="font-weight:bold;vertical-align:top;">secure</td><td style="vertical-align:top;">:</td><td><div></div></td></tr><tr><td style="font-weight:bold;vertical-align:top;">version</td><td style="vertical-align:top;">:</td><td><div></div></td></tr></table></div></td></tr><tr><td style="font-weight:bold;vertical-align:top;">adminLanguage</td><td style="vertical-align:top;">:</td><td><div>en-us<table><tr><td style="font-weight:bold;vertical-align:top;">comment</td><td style="vertical-align:top;">:</td><td><div></div></td></tr><tr><td style="font-weight:bold;vertical-align:top;">domain</td><td style="vertical-align:top;">:</td><td><div></div></td></tr><tr><td style="font-weight:bold;vertical-align:top;">expires</td><td style="vertical-align:top;">:</td><td><div></div></td></tr><tr><td style="font-weight:bold;vertical-align:top;">httponly</td><td style="vertical-align:top;">:</td><td><div></div></td></tr><tr><td style="font-weight:bold;vertical-align:top;">max-age</td><td style="vertical-align:top;">:</td><td><div></div></td></tr><tr><td style="font-weight:bold;vertical-align:top;">path</td><td style="vertical-align:top;">:</td><td><div></div></td></tr><tr><td style="font-weight:bold;vertical-align:top;">secure</td><td style="vertical-align:top;">:</td><td><div></div></td></tr><tr><td style="font-weight:bold;vertical-align:top;">version</td><td style="vertical-align:top;">:</td><td><div></div></td></tr></table></div></td></tr><tr><td style="font-weight:bold;vertical-align:top;">session_id_admin</td><td style="vertical-align:top;">:</td><td><div>127.0.0.1-19a18691-4c8c-4952-a340-8d563e9228f4<table><tr><td style="font-weight:bold;vertical-align:top;">comment</td><td style="vertical-align:top;">:</td><td><div></div></td></tr><tr><td style="font-weight:bold;vertical-align:top;">domain</td><td style="vertical-align:top;">:</td><td><div></div></td></tr><tr><td style="font-weight:bold;vertical-align:top;">expires</td><td style="vertical-align:top;">:</td><td><div></div></td></tr><tr><td style="font-weight:bold;vertical-align:top;">httponly</td><td style="vertical-align:top;">:</td><td><div></div></td></tr><tr><td style="font-weight:bold;vertical-align:top;">max-age</td><td style="vertical-align:top;">:</td><td><div></div></td></tr><tr><td style="font-weight:bold;vertical-align:top;">path</td><td style="vertical-align:top;">:</td><td><div></div></td></tr><tr><td style="font-weight:bold;vertical-align:top;">secure</td><td style="vertical-align:top;">:</td><td><div></div></td></tr><tr><td style="font-weight:bold;vertical-align:top;">version</td><td style="vertical-align:top;">:</td><td><div></div></td></tr></table></div></td></tr><tr><td style="font-weight:bold;vertical-align:top;">session_id_homeautomation</td><td style="vertical-align:top;">:</td><td><div>127.0.0.1-c2773832-070f-4514-a5ab-257c226f00d1<table><tr><td style="font-weight:bold;vertical-align:top;">comment</td><td style="vertical-align:top;">:</td><td><div></div></td></tr><tr><td style="font-weight:bold;vertical-align:top;">domain</td><td style="vertical-align:top;">:</td><td><div></div></td></tr><tr><td style="font-weight:bold;vertical-align:top;">expires</td><td style="vertical-align:top;">:</td><td><div></div></td></tr><tr><td style="font-weight:bold;vertical-align:top;">httponly</td><td style="vertical-align:top;">:</td><td><div></div></td></tr><tr><td style="font-weight:bold;vertical-align:top;">max-age</td><td style="vertical-align:top;">:</td><td><div></div></td></tr><tr><td style="font-weight:bold;vertical-align:top;">path</td><td style="vertical-align:top;">:</td><td><div></div></td></tr><tr><td style="font-weight:bold;vertical-align:top;">secure</td><td style="vertical-align:top;">:</td><td><div></div></td></tr><tr><td style="font-weight:bold;vertical-align:top;">version</td><td style="vertical-align:top;">:</td><td><div></div></td></tr></table></div></td></tr><tr><td style="font-weight:bold;vertical-align:top;">session_id_myapp</td><td style="vertical-align:top;">:</td><td><div>127.0.0.1-1722d26e-6883-478a-a2c1-e9b8c340ccfc<table><tr><td style="font-weight:bold;vertical-align:top;">comment</td><td style="vertical-align:top;">:</td><td><div></div></td></tr><tr><td style="font-weight:bold;vertical-align:top;">domain</td><td style="vertical-align:top;">:</td><td><div></div></td></tr><tr><td style="font-weight:bold;vertical-align:top;">expires</td><td style="vertical-align:top;">:</td><td><div></div></td></tr><tr><td style="font-weight:bold;vertical-align:top;">httponly</td><td style="vertical-align:top;">:</td><td><div></div></td></tr><tr><td style="font-weight:bold;vertical-align:top;">max-age</td><td style="vertical-align:top;">:</td><td><div></div></td></tr><tr><td style="font-weight:bold;vertical-align:top;">path</td><td style="vertical-align:top;">:</td><td><div></div></td></tr><tr><td style="font-weight:bold;vertical-align:top;">secure</td><td style="vertical-align:top;">:</td><td><div></div></td></tr><tr><td style="font-weight:bold;vertical-align:top;">version</td><td style="vertical-align:top;">:</td><td><div></div></td></tr></table></div></td></tr><tr><td style="font-weight:bold;vertical-align:top;">session_id_welcome</td><td style="vertical-align:top;">:</td><td><div>127.0.0.1-8aad1b90-f791-42aa-9243-83140eb9aed5<table><tr><td style="font-weight:bold;vertical-align:top;">comment</td><td style="vertical-align:top;">:</td><td><div></div></td></tr><tr><td style="font-weight:bold;vertical-align:top;">domain</td><td style="vertical-align:top;">:</td><td><div></div></td></tr><tr><td style="font-weight:bold;vertical-align:top;">expires</td><td style="vertical-align:top;">:</td><td><div></div></td></tr><tr><td style="font-weight:bold;vertical-align:top;">httponly</td><td style="vertical-align:top;">:</td><td><div></div></td></tr><tr><td style="font-weight:bold;vertical-align:top;">max-age</td><td style="vertical-align:top;">:</td><td><div></div></td></tr><tr><td style="font-weight:bold;vertical-align:top;">path</td><td style="vertical-align:top;">:</td><td><div></div></td></tr><tr><td style="font-weight:bold;vertical-align:top;">secure</td><td style="vertical-align:top;">:</td><td><div></div></td></tr><tr><td style="font-weight:bold;vertical-align:top;">version</td><td style="vertical-align:top;">:</td><td><div></div></td></tr></table></div></td></tr></table></div></td></tr><tr><td style="font-weight:bold;vertical-align:top;">env</td><td style="vertical-align:top;">:</td><td><div><table><tr><td style="font-weight:bold;vertical-align:top;">HTTP_ACCEPT</td><td style="vertical-align:top;">:</td><td><div>text/html,application/xhtml+xml,application/xml;q=0.9,image/webp,*/*;q=0.8</div></td></tr><tr><td style="font-weight:bold;vertical-align:top;">HTTP_ACCEPT_ENCODING</td><td style="vertical-align:top;">:</td><td><div>gzip,deflate,sdch</div></td></tr><tr><td style="font-weight:bold;vertical-align:top;">HTTP_ACCEPT_LANGUAGE</td><td style="vertical-align:top;">:</td><td><div>zh-CN,zh;q=0.8,en;q=0.6,zh-TW;q=0.4</div></td></tr><tr><td style="font-weight:bold;vertical-align:top;">HTTP_CACHE_CONTROL</td><td style="vertical-align:top;">:</td><td><div>max-age=0</div></td></tr><tr><td style="font-weight:bold;vertical-align:top;">HTTP_CONNECTION</td><td style="vertical-align:top;">:</td><td><div>keep-alive</div></td></tr><tr><td style="font-weight:bold;vertical-align:top;">HTTP_COOKIE</td><td style="vertical-align:top;">:</td><td><div>adminLanguage=en-us; session_id_myapp=127.0.0.1-1722d26e-6883-478a-a2c1-e9b8c340ccfc; session_id_welcome=127.0.0.1-8aad1b90-f791-42aa-9243-83140eb9aed5; session_id_admin=127.0.0.1-19a18691-4c8c-4952-a340-8d563e9228f4; session_id_homeautomation=127.0.0.1-c2773832-070f-4514-a5ab-257c226f00d1; a2404_pages=10; a2404_times=6</div></td></tr><tr><td style="font-weight:bold;vertical-align:top;">HTTP_HOST</td><td style="vertical-align:top;">:</td><td><div>127.0.0.1:8000</div></td></tr><tr><td style="font-weight:bold;vertical-align:top;">HTTP_REFERER</td><td style="vertical-align:top;">:</td><td><div>http://127.0.0.1:8000/admin/default/design/HomeAutomation</div></td></tr><tr><td style="font-weight:bold;vertical-align:top;">HTTP_USER_AGENT</td><td style="vertical-align:top;">:</td><td><div>Mozilla/5.0 (Windows NT 6.2; WOW64) AppleWebKit/537.36 (KHTML, like Gecko) Chrome/38.0.2125.122 Safari/537.36</div></td></tr><tr><td style="font-weight:bold;vertical-align:top;">PATH_INFO</td><td style="vertical-align:top;">:</td><td><div>/HomeAutomation/settings/thermostat</div></td></tr><tr><td style="font-weight:bold;vertical-align:top;">QUERY_STRING</td><td style="vertical-align:top;">:</td><td><div></div></td></tr><tr><td style="font-weight:bold;vertical-align:top;">REMOTE_ADDR</td><td style="vertical-align:top;">:</td><td><div>127.0.0.1</div></td></tr><tr><td style="font-weight:bold;vertical-align:top;">REMOTE_PORT</td><td style="vertical-align:top;">:</td><td><div>64163</div></td></tr><tr><td style="font-weight:bold;vertical-align:top;">REQUEST_METHOD</td><td style="vertical-align:top;">:</td><td><div>GET</div></td></tr><tr><td style="font-weight:bold;vertical-align:top;">SCRIPT_NAME</td><td style="vertical-align:top;">:</td><td><div></div></td></tr><tr><td style="font-weight:bold;vertical-align:top;">SERVER_NAME</td><td style="vertical-align:top;">:</td><td><div>AtwoodWang</div></td></tr><tr><td style="font-weight:bold;vertical-align:top;">SERVER_PORT</td><td style="vertical-align:top;">:</td><td><div>8000</div></td></tr><tr><td style="font-weight:bold;vertical-align:top;">SERVER_PROTOCOL</td><td style="vertical-align:top;">:</td><td><div>HTTP/1.1</div></td></tr><tr><td style="font-weight:bold;vertical-align:top;">SERVER_SOFTWARE</td><td style="vertical-align:top;">:</td><td><div>Rocket 1.2.6</div></td></tr><tr><td style="font-weight:bold;vertical-align:top;">app_folders</td><td style="vertical-align:top;">:</td><td><div>set([&#x27;F:\\\\Github\\\\python\\\\HomeAutomation\\\\web2py\\\\applications\\\\admin\\\\&#x27;, &#x27;F:\\\\Github\\\\python\\\\HomeAutomation\\\\web2py\\\\applications\\\\welcome\\\\&#x27;, &#x27;F:\\\\Github\\\\python\\\\HomeAutomation\\\\web2py\\\\applications\\\\HomeAutomation\\\\&#x27;])</div></td></tr><tr><td style="font-weight:bold;vertical-align:top;">applications_parent</td><td style="vertical-align:top;">:</td><td><div>F:\\Github\\python\\HomeAutomation\\web2py</div></td></tr><tr><td style="font-weight:bold;vertical-align:top;">cmd_args</td><td style="vertical-align:top;">:</td><td><div><table></table></div></td></tr><tr><td style="font-weight:bold;vertical-align:top;">cmd_options</td><td style="vertical-align:top;">:</td><td><div>&lt;Values at 0x2eef2b0: {&#x27;verbose&#x27;: False, &#x27;ip&#x27;: &#x27;127.0.0.1&#x27;, &#x27;debuglevel&#x27;: 30, &#x27;with_scheduler&#x27;: False, &#x27;ips&#x27;: [&#x27;192.168.1.71&#x27;], &#x27;shutdown_timeout&#x27;: 5, &#x27;taskbar&#x27;: False, &#x27;with_coverage&#x27;: False, &#x27;scheduler_groups&#x27;: None, &#x27;port&#x27;: 8000, &#x27;maxthreads&#x27;: None, &#x27;softcron&#x27;: False, &#x27;server_name&#x27;: &#x27;AtwoodWang&#x27;, &#x27;bpython&#x27;: False, &#x27;nogui&#x27;: False, &#x27;pid_filename&#x27;: &#x27;httpserver.pid&#x27;, &#x27;print_errors&#x27;: False, &#x27;extcron&#x27;: False, &#x27;runcron&#x27;: False, &#x27;run_system_tests&#x27;: False, &#x27;test&#x27;: None, &#x27;folder&#x27;: &#x27;F:\\\\Github\\\\python\\\\HomeAutomation\\\\web2py&#x27;, &#x27;config&#x27;: &#x27;&#x27;, &#x27;minthreads&#x27;: None, &#x27;shell&#x27;: None, &#x27;run&#x27;: &#x27;&#x27;, &#x27;log_filename&#x27;: &#x27;httpserver.log&#x27;, &#x27;profiler_dir&#x27;: None, &#x27;args&#x27;: [&#x27;&#x27;], &#x27;socket_timeout&#x27;: 5, &#x27;ssl_ca_certificate&#x27;: None, &#x27;scheduler&#x27;: None, &#x27;interfaces&#x27;: None, &#x27;ssl_private_key&#x27;: &#x27;&#x27;, &#x27;gae&#x27;: None, &#x27;password&#x27;: &#x27;&lt;ask&gt;&#x27;, &#x27;request_queue_size&#x27;: 5, &#x27;ssl_certificate&#x27;: &#x27;&#x27;, &#x27;cronjob&#x27;: False, &#x27;numthreads&#x27;: None, &#x27;quiet&#x27;: False, &#x27;import_models&#x27;: False, &#x27;timeout&#x27;: 10, &#x27;plain&#x27;: False, &#x27;nobanner&#x27;: False}&gt;</div></td></tr><tr><td style="font-weight:bold;vertical-align:top;">db_sessions</td><td style="vertical-align:top;">:</td><td><div>set([])</div></td></tr><tr><td style="font-weight:bold;vertical-align:top;">debugging</td><td style="vertical-align:top;">:</td><td><div>False</div></td></tr><tr><td style="font-weight:bold;vertical-align:top;">gluon_parent</td><td style="vertical-align:top;">:</td><td><div>F:\\Github\\python\\HomeAutomation\\web2py</div></td></tr><tr><td style="font-weight:bold;vertical-align:top;">http_accept</td><td style="vertical-align:top;">:</td><td><div>text/html,application/xhtml+xml,application/xml;q=0.9,image/webp,*/*;q=0.8</div></td></tr><tr><td style="font-weight:bold;vertical-align:top;">http_accept_encoding</td><td style="vertical-align:top;">:</td><td><div>gzip,deflate,sdch</div></td></tr><tr><td style="font-weight:bold;vertical-align:top;">http_accept_language</td><td style="vertical-align:top;">:</td><td><div>zh-CN,zh;q=0.8,en;q=0.6,zh-TW;q=0.4</div></td></tr><tr><td style="font-weight:bold;vertical-align:top;">http_cache_control</td><td style="vertical-align:top;">:</td><td><div>max-age=0</div></td></tr><tr><td style="font-weight:bold;vertical-align:top;">http_connection</td><td style="vertical-align:top;">:</td><td><div>keep-alive</div></td></tr><tr><td style="font-weight:bold;vertical-align:top;">http_cookie</td><td style="vertical-align:top;">:</td><td><div>adminLanguage=en-us; session_id_myapp=127.0.0.1-1722d26e-6883-478a-a2c1-e9b8c340ccfc; session_id_welcome=127.0.0.1-8aad1b90-f791-42aa-9243-83140eb9aed5; session_id_admin=127.0.0.1-19a18691-4c8c-4952-a340-8d563e9228f4; session_id_homeautomation=127.0.0.1-c2773832-070f-4514-a5ab-257c226f00d1; a2404_pages=10; a2404_times=6</div></td></tr><tr><td style="font-weight:bold;vertical-align:top;">http_host</td><td style="vertical-align:top;">:</td><td><div>127.0.0.1:8000</div></td></tr><tr><td style="font-weight:bold;vertical-align:top;">http_referer</td><td style="vertical-align:top;">:</td><td><div>http://127.0.0.1:8000/admin/default/design/HomeAutomation</div></td></tr><tr><td style="font-weight:bold;vertical-align:top;">http_user_agent</td><td style="vertical-align:top;">:</td><td><div>Mozilla/5.0 (Windows NT 6.2; WOW64) AppleWebKit/537.36 (KHTML, like Gecko) Chrome/38.0.2125.122 Safari/537.36</div></td></tr><tr><td style="font-weight:bold;vertical-align:top;">is_jython</td><td style="vertical-align:top;">:</td><td><div>False</div></td></tr><tr><td style="font-weight:bold;vertical-align:top;">is_pypy</td><td style="vertical-align:top;">:</td><td><div>False</div></td></tr><tr><td style="font-weight:bold;vertical-align:top;">is_source</td><td style="vertical-align:top;">:</td><td><div>True</div></td></tr><tr><td style="font-weight:bold;vertical-align:top;">local_hosts</td><td style="vertical-align:top;">:</td><td><div><table><tr><td><div>2001:0:9d38:6ab8:10a7:15ee:3f57:feb8</div></td></tr><tr><td><div>192.168.1.71</div></td></tr><tr><td><div>::ffff:127.0.0.1</div></td></tr><tr><td><div>::1</div></td></tr><tr><td><div>fe80::10a7:15ee:3f57:feb8%19</div></td></tr><tr><td><div>AtwoodWang</div></td></tr><tr><td><div>127.0.0.1</div></td></tr><tr><td><div>fe80::4943:3ce4:2d7:ad32%13</div></td></tr><tr><td><div>AtwoodWang.gateway.pace.com</div></td></tr></table></div></td></tr><tr><td style="font-weight:bold;vertical-align:top;">path_info</td><td style="vertical-align:top;">:</td><td><div>/HomeAutomation/settings/thermostat</div></td></tr><tr><td style="font-weight:bold;vertical-align:top;">query_string</td><td style="vertical-align:top;">:</td><td><div></div></td></tr><tr><td style="font-weight:bold;vertical-align:top;">remote_addr</td><td style="vertical-align:top;">:</td><td><div>127.0.0.1</div></td></tr><tr><td style="font-weight:bold;vertical-align:top;">remote_port</td><td style="vertical-align:top;">:</td><td><div>64163</div></td></tr><tr><td style="font-weight:bold;vertical-align:top;">request_method</td><td style="vertical-align:top;">:</td><td><div>GET</div></td></tr><tr><td style="font-weight:bold;vertical-align:top;">request_uri</td><td style="vertical-align:top;">:</td><td><div>/HomeAutomation/settings/thermostat</div></td></tr><tr><td style="font-weight:bold;vertical-align:top;">script_name</td><td style="vertical-align:top;">:</td><td><div></div></td></tr><tr><td style="font-weight:bold;vertical-align:top;">server_name</td><td style="vertical-align:top;">:</td><td><div>AtwoodWang</div></td></tr><tr><td style="font-weight:bold;vertical-align:top;">server_port</td><td style="vertical-align:top;">:</td><td><div>8000</div></td></tr><tr><td style="font-weight:bold;vertical-align:top;">server_protocol</td><td style="vertical-align:top;">:</td><td><div>HTTP/1.1</div></td></tr><tr><td style="font-weight:bold;vertical-align:top;">server_software</td><td style="vertical-align:top;">:</td><td><div>Rocket 1.2.6</div></td></tr><tr><td style="font-weight:bold;vertical-align:top;">web2py_path</td><td style="vertical-align:top;">:</td><td><div>F:\\Github\\python\\HomeAutomation\\web2py</div></td></tr><tr><td style="font-weight:bold;vertical-align:top;">web2py_version</td><td style="vertical-align:top;">:</td><td><div>2.10.3-stable+timestamp.2015.04.02.21.42.07</div></td></tr><tr><td style="font-weight:bold;vertical-align:top;">wsgi.errors</td><td style="vertical-align:top;">:</td><td><div>&lt;open file &#x27;&lt;stderr&gt;&#x27;, mode &#x27;w&#x27; at 0x01E1D0D0&gt;</div></td></tr><tr><td style="font-weight:bold;vertical-align:top;">wsgi.file_wrapper</td><td style="vertical-align:top;">:</td><td><div>&lt;class wsgiref.util.FileWrapper at 0x03110D50&gt;</div></td></tr><tr><td style="font-weight:bold;vertical-align:top;">wsgi.input</td><td style="vertical-align:top;">:</td><td><div>&lt;socket._fileobject object at 0x03E5B570&gt;</div></td></tr><tr><td style="font-weight:bold;vertical-align:top;">wsgi.multiprocess</td><td style="vertical-align:top;">:</td><td><div>False</div></td></tr><tr><td style="font-weight:bold;vertical-align:top;">wsgi.multithread</td><td style="vertical-align:top;">:</td><td><div>True</div></td></tr><tr><td style="font-weight:bold;vertical-align:top;">wsgi.run_once</td><td style="vertical-align:top;">:</td><td><div>False</div></td></tr><tr><td style="font-weight:bold;vertical-align:top;">wsgi.url_scheme</td><td style="vertical-align:top;">:</td><td><div>http</div></td></tr><tr><td style="font-weight:bold;vertical-align:top;">wsgi.version</td><td style="vertical-align:top;">:</td><td><div><table><tr><td><div>1</div></td></tr><tr><td><div>0</div></td></tr></table></div></td></tr><tr><td style="font-weight:bold;vertical-align:top;">wsgi_errors</td><td style="vertical-align:top;">:</td><td><div>&lt;open file &#x27;&lt;stderr&gt;&#x27;, mode &#x27;w&#x27; at 0x01E1D0D0&gt;</div></td></tr><tr><td style="font-weight:bold;vertical-align:top;">wsgi_file_wrapper</td><td style="vertical-align:top;">:</td><td><div>&lt;class wsgiref.util.FileWrapper at 0x03110D50&gt;</div></td></tr><tr><td style="font-weight:bold;vertical-align:top;">wsgi_input</td><td style="vertical-align:top;">:</td><td><div>&lt;socket._fileobject object at 0x03E5B570&gt;</div></td></tr><tr><td style="font-weight:bold;vertical-align:top;">wsgi_multiprocess</td><td style="vertical-align:top;">:</td><td><div>False</div></td></tr><tr><td style="font-weight:bold;vertical-align:top;">wsgi_multithread</td><td style="vertical-align:top;">:</td><td><div>True</div></td></tr><tr><td style="font-weight:bold;vertical-align:top;">wsgi_run_once</td><td style="vertical-align:top;">:</td><td><div>False</div></td></tr><tr><td style="font-weight:bold;vertical-align:top;">wsgi_url_scheme</td><td style="vertical-align:top;">:</td><td><div>http</div></td></tr><tr><td style="font-weight:bold;vertical-align:top;">wsgi_version</td><td style="vertical-align:top;">:</td><td><div><table><tr><td><div>1</div></td></tr><tr><td><div>0</div></td></tr></table></div></td></tr></table></div></td></tr><tr><td style="font-weight:bold;vertical-align:top;">extension</td><td style="vertical-align:top;">:</td><td><div>html</div></td></tr><tr><td style="font-weight:bold;vertical-align:top;">folder</td><td style="vertical-align:top;">:</td><td><div>F:\\Github\\python\\HomeAutomation\\web2py\\applications\\HomeAutomation\\</div></td></tr><tr><td style="font-weight:bold;vertical-align:top;">function</td><td style="vertical-align:top;">:</td><td><div>thermostat</div></td></tr><tr><td style="font-weight:bold;vertical-align:top;">global_settings</td><td style="vertical-align:top;">:</td><td><div><table><tr><td style="font-weight:bold;vertical-align:top;">app_folders</td><td style="vertical-align:top;">:</td><td><div>set([&#x27;F:\\\\Github\\\\python\\\\HomeAutomation\\\\web2py\\\\applications\\\\admin\\\\&#x27;, &#x27;F:\\\\Github\\\\python\\\\HomeAutomation\\\\web2py\\\\applications\\\\welcome\\\\&#x27;, &#x27;F:\\\\Github\\\\python\\\\HomeAutomation\\\\web2py\\\\applications\\\\HomeAutomation\\\\&#x27;])</div></td></tr><tr><td style="font-weight:bold;vertical-align:top;">applications_parent</td><td style="vertical-align:top;">:</td><td><div>F:\\Github\\python\\HomeAutomation\\web2py</div></td></tr><tr><td style="font-weight:bold;vertical-align:top;">cmd_args</td><td style="vertical-align:top;">:</td><td><div><table></table></div></td></tr><tr><td style="font-weight:bold;vertical-align:top;">cmd_options</td><td style="vertical-align:top;">:</td><td><div>&lt;Values at 0x2eef2b0: {&#x27;verbose&#x27;: False, &#x27;ip&#x27;: &#x27;127.0.0.1&#x27;, &#x27;debuglevel&#x27;: 30, &#x27;with_scheduler&#x27;: False, &#x27;ips&#x27;: [&#x27;192.168.1.71&#x27;], &#x27;shutdown_timeout&#x27;: 5, &#x27;taskbar&#x27;: False, &#x27;with_coverage&#x27;: False, &#x27;scheduler_groups&#x27;: None, &#x27;port&#x27;: 8000, &#x27;maxthreads&#x27;: None, &#x27;softcron&#x27;: False, &#x27;server_name&#x27;: &#x27;AtwoodWang&#x27;, &#x27;bpython&#x27;: False, &#x27;nogui&#x27;: False, &#x27;pid_filename&#x27;: &#x27;httpserver.pid&#x27;, &#x27;print_errors&#x27;: False, &#x27;extcron&#x27;: False, &#x27;runcron&#x27;: False, &#x27;run_system_tests&#x27;: False, &#x27;test&#x27;: None, &#x27;folder&#x27;: &#x27;F:\\\\Github\\\\python\\\\HomeAutomation\\\\web2py&#x27;, &#x27;config&#x27;: &#x27;&#x27;, &#x27;minthreads&#x27;: None, &#x27;shell&#x27;: None, &#x27;run&#x27;: &#x27;&#x27;, &#x27;log_filename&#x27;: &#x27;httpserver.log&#x27;, &#x27;profiler_dir&#x27;: None, &#x27;args&#x27;: [&#x27;&#x27;], &#x27;socket_timeout&#x27;: 5, &#x27;ssl_ca_certificate&#x27;: None, &#x27;scheduler&#x27;: None, &#x27;interfaces&#x27;: None, &#x27;ssl_private_key&#x27;: &#x27;&#x27;, &#x27;gae&#x27;: None, &#x27;password&#x27;: &#x27;&lt;ask&gt;&#x27;, &#x27;request_queue_size&#x27;: 5, &#x27;ssl_certificate&#x27;: &#x27;&#x27;, &#x27;cronjob&#x27;: False, &#x27;numthreads&#x27;: None, &#x27;quiet&#x27;: False, &#x27;import_models&#x27;: False, &#x27;timeout&#x27;: 10, &#x27;plain&#x27;: False, &#x27;nobanner&#x27;: False}&gt;</div></td></tr><tr><td style="font-weight:bold;vertical-align:top;">db_sessions</td><td style="vertical-align:top;">:</td><td><div>set([])</div></td></tr><tr><td style="font-weight:bold;vertical-align:top;">debugging</td><td style="vertical-align:top;">:</td><td><div>False</div></td></tr><tr><td style="font-weight:bold;vertical-align:top;">gluon_parent</td><td style="vertical-align:top;">:</td><td><div>F:\\Github\\python\\HomeAutomation\\web2py</div></td></tr><tr><td style="font-weight:bold;vertical-align:top;">is_jython</td><td style="vertical-align:top;">:</td><td><div>False</div></td></tr><tr><td style="font-weight:bold;vertical-align:top;">is_pypy</td><td style="vertical-align:top;">:</td><td><div>False</div></td></tr><tr><td style="font-weight:bold;vertical-align:top;">is_source</td><td style="vertical-align:top;">:</td><td><div>True</div></td></tr><tr><td style="font-weight:bold;vertical-align:top;">local_hosts</td><td style="vertical-align:top;">:</td><td><div><table><tr><td><div>2001:0:9d38:6ab8:10a7:15ee:3f57:feb8</div></td></tr><tr><td><div>192.168.1.71</div></td></tr><tr><td><div>::ffff:127.0.0.1</div></td></tr><tr><td><div>::1</div></td></tr><tr><td><div>fe80::10a7:15ee:3f57:feb8%19</div></td></tr><tr><td><div>AtwoodWang</div></td></tr><tr><td><div>127.0.0.1</div></td></tr><tr><td><div>fe80::4943:3ce4:2d7:ad32%13</div></td></tr><tr><td><div>AtwoodWang.gateway.pace.com</div></td></tr></table></div></td></tr><tr><td style="font-weight:bold;vertical-align:top;">web2py_version</td><td style="vertical-align:top;">:</td><td><div>2.10.3-stable+timestamp.2015.04.02.21.42.07</div></td></tr></table></div></td></tr><tr><td style="font-weight:bold;vertical-align:top;">is_https</td><td style="vertical-align:top;">:</td><td><div>False</div></td></tr><tr><td style="font-weight:bold;vertical-align:top;">is_local</td><td style="vertical-align:top;">:</td><td><div>True</div></td></tr><tr><td style="font-weight:bold;vertical-align:top;">is_restful</td><td style="vertical-align:top;">:</td><td><div>False</div></td></tr><tr><td style="font-weight:bold;vertical-align:top;">is_sheduler</td><td style="vertical-align:top;">:</td><td><div>None</div></td></tr><tr><td style="font-weight:bold;vertical-align:top;">is_shell</td><td style="vertical-align:top;">:</td><td><div>None</div></td></tr><tr><td style="font-weight:bold;vertical-align:top;">now</td><td style="vertical-align:top;">:</td><td><div>datetime.datetime(2015, 4, 13, 23, 55, 26, 109000)</div></td></tr><tr><td style="font-weight:bold;vertical-align:top;">raw_args</td><td style="vertical-align:top;">:</td><td><div></div></td></tr><tr><td style="font-weight:bold;vertical-align:top;">raw_extension</td><td style="vertical-align:top;">:</td><td><div>None</div></td></tr><tr><td style="font-weight:bold;vertical-align:top;">url</td><td style="vertical-align:top;">:</td><td><div>/HomeAutomation/settings/thermostat</div></td></tr><tr><td style="font-weight:bold;vertical-align:top;">utcnow</td><td style="vertical-align:top;">:</td><td><div>datetime.datetime(2015, 4, 14, 3, 55, 26, 109000)</div></td></tr><tr><td style="font-weight:bold;vertical-align:top;">uuid</td><td style="vertical-align:top;">:</td><td><div>HomeAutomation/127.0.0.1.2015-04-13.23-55-26.d0834f84-e25e-4a61-8356-7a2cb418b6f7</div></td></tr><tr><td style="font-weight:bold;vertical-align:top;">wsgi</td><td style="vertical-align:top;">:</td><td><div>&lt;gluon.main.LazyWSGI object at 0x03922350&gt;</div></td></tr></table></div>'
tRp62
sS'frames'
p63
(lp64
(dp65
S'file'
p66
S'F:\\Github\\python\\HomeAutomation\\web2py\\gluon\\restricted.py'
p67
sS'dump'
p68
(dp69
S'environment'
p70
S"{'A': <class 'gluon.html.A'>, 'ANY_OF': <class 'gluon.validators.ANY_OF'>, 'ASSIGNJS': <function ASSIGNJS>, 'AppConfig': <function AppConfig>, 'Auth': <class 'gluon.tools.Auth'>, 'B': <class 'gluon.html.B'>, 'BEAUTIFY': <class 'gluon.html.BEAUTIFY'>, 'BODY': <class 'gluon.html.BODY'>, 'BR': <class 'gluon.html.BR'>, 'BUTTON': <class 'gluon.html.BUTTON'>, ...}"
p71
sS'ccode'
p72
S'<code object <module> at 03FBA188, file "F:\\Gith...tomation\\views\\settings/thermostat.html", line 1>'
p73
ssS'lnum'
p74
I227
sS'lines'
p75
(dp76
I224
S'            ccode = code'
p77
sI225
S'        else:'
p78
sI226
S'            ccode = compile2(code, layer)'
p79
sI227
S'        exec ccode in environment'
p80
sI228
S'    except HTTP:'
p81
sI229
S'        raise'
p82
sI230
S'    except RestrictedError:'
p83
sI231
S'        # do not encapsulate (obfuscate) the original RestrictedError'
p84
sI222
S'    try:'
p85
sI223
S'        if isinstance(code, types.CodeType):'
p86
ssS'call'
p87
S'(code=r"response.write(\'<!DOCTYPE html>\\r\\n<html>\\r\\n<he.../a>\\r\\n\\r\\n</body>\\r\\n</html>\\r\\n\', escape=False)", environment={\'A\': <class \'gluon.html.A\'>, \'ANY_OF\': <class \'gluon.validators.ANY_OF\'>, \'ASSIGNJS\': <function ASSIGNJS>, \'AppConfig\': <function AppConfig>, \'Auth\': <class \'gluon.tools.Auth\'>, \'B\': <class \'gluon.html.B\'>, \'BEAUTIFY\': <class \'gluon.html.BEAUTIFY\'>, \'BODY\': <class \'gluon.html.BODY\'>, \'BR\': <class \'gluon.html.BR\'>, \'BUTTON\': <class \'gluon.html.BUTTON\'>, ...}, layer=r\'F:\\Github\\python\\HomeAutomation\\web2py\\applications\\HomeAutomation\\views\\settings/thermostat.html\')'
p88
sS'func'
p89
S'restricted'
p90
sa(dp91
g66
S'F:\\Github\\python\\HomeAutomation\\web2py\\applications\\HomeAutomation\\views\\settings\\thermostat.html'
p92
sg68
(dp93
S'meta'
p94
S'undefined'
p95
sS'charset'
p96
g95
ssg74
I4
sg75
(dp97
I1
S'response.write(\'<!DOCTYPE html>\\r\\n<html>\\r\\n<head lang="en">\\r\\n    <meta charset="UTF-8">\\r\\n    <title></title>\\r\\n    <link rel="stylesheet" type="text/css" href="\', escape=False)'
p98
sI2
S"response.write(URL('static','css/default.css'))"
p99
sI3
S'response.write(\'">\\r\\n</head>\\r\\n<body>\\r\\n<div class="Table">\\r\\n    <div class="Title"><p>Weekly Thermostat Schedule</p></div>\\r\\n    <div id="weekly" class="Heading">\\r\\n        <div id="Sunday" class="Cell"><p>Sunday</p></div>\\r\\n        <div id="Monday" class="Cell"><p>Monday</p></div>\\r\\n        <div id="Tuesday" class="Cell"><p>Tuesday</p></div>\\r\\n        <div id="Wednesday" class="Cell"><p>Wednesday</p></div>\\r\\n        <div id="Thursday" class="Cell"><p>Thursday</p></div>\\r\\n        <div id="Friday" class="Cell"><p>Friday</p></div>\\r\\n        <div id="Saturday" class="Cell"><p>Saturday</p></div>\\r\\n    </div>\\r\\n    <div id="schedule" class="Row">\\r\\n        <div id="SundayList" class="Cell">\\r\\n            <ul id="SundayList" class="Temp">\\r\\n                <li>\\r\\n                    <a href=""><p></p></a>\\r\\n                </li>\\r\\n            </ul>\\r\\n        </div>\\r\\n        <div id="MondayList" class="Cell">\\r\\n            <ul id="MondayList" class="Temp">\\r\\n                <li>\\r\\n                    <a href=""><p>\', escape=False)'
p100
sI4
S"for row in db(db.temperatures.day_of_week=='Monday').select(orderby='time'):"
p101
sI5
S"    response.write('\\r\\n                        <li>', escape=False)"
p102
sI6
S'    response.write(row.time_start)'
p103
sI7
S"    response.write(' -- ', escape=False)"
p104
sI8
S'    response.write(row.temperature)'
p105
sI9
S"    response.write('\\xe2\\x84\\x89\\r\\n                        </li>', escape=False)"
p106
sI10
S'    pass'
p107
sI11
S'response.write(\'</p></a>\\r\\n                </li>\\r\\n            </ul>\\r\\n        </div>\\r\\n        <div id="TuesdayList" class="Cell">\\r\\n            <ul id="TuesdayList" class="Temp">\\r\\n                <li>\\r\\n                    <a href=""><p>08:00 AM - 70</p></a>\\r\\n                </li>\\r\\n            </ul>\\r\\n        </div>\\r\\n        <div id="WednesdayList" class="Cell">\\r\\n            <ul id="WednesdayList" class="Temp">\\r\\n                <li>\\r\\n                    <a href=""><p>08:00 AM - 70</p></a>\\r\\n                </li>\\r\\n            </ul>\\r\\n        </div>\\r\\n        <div id="ThursdayList" class="Cell">\\r\\n            <ul id="ThursdayList" class="Temp">\\r\\n                <li>\\r\\n                    <a href=""><p>08:00 AM - 70</p></a>\\r\\n                </li>\\r\\n            </ul>\\r\\n        </div>\\r\\n        <div id="FridayList" class="Cell">\\r\\n            <ul id="FridayList" class="Temp">\\r\\n                <li>\\r\\n                    <a href=""><p>08:00 AM - 70</p></a>\\r\\n                </li>\\r\\n            </ul>\\r\\n        </div>\\r\\n        <div id="SaturdayList" class="Cell">\\r\\n            <ul id="SaturdayList" class="Temp">\\r\\n                <li>\\r\\n                    <a href=""><p>08:00 AM - 70</p></a>\\r\\n                </li>\\r\\n            </ul>\\r\\n        </div>\\r\\n    </div>\\r\\n</div>\\r\\n<br>\\r\\n<hr>\\r\\n<br>\\r\\n<a href="form.html">Add new setting</a>\\r\\n\\r\\n</body>\\r\\n</html>\\r\\n\', escape=False)'
p108
ssg87
S'()'
p109
sg89
S'<module>'
p110
sa(dp111
g66
S'F:\\Github\\python\\HomeAutomation\\web2py\\gluon\\packages\\dal\\pydal\\objects.py'
p112
sg68
(dp113
S'self.query'
p114
S"<Query (temperatures.day_of_week = 'Monday')>"
p115
sS'adapter.select'
p116
S'<bound method SQLiteAdapter.select of <pydal.adapters.sqlite.SQLiteAdapter object>>'
p117
sS'fields'
p118
S'[<pydal.objects.Field object>, <pydal.objects.Field object>, <pydal.objects.Field object>, <pydal.objects.Field object>]'
p119
sS'adapter'
p120
S'<pydal.adapters.sqlite.SQLiteAdapter object>'
p121
sS'attributes'
p122
S"{'orderby': 'time'}"
p123
sS'self'
p124
S"<Set (temperatures.day_of_week = 'Monday')>"
p125
ssg74
I2093
sg75
(dp126
I2088
S"                                    attributes.get('join',None),"
p127
sI2089
S"                                    attributes.get('left',None),"
p128
sI2090
S"                                    attributes.get('orderby',None),"
p129
sI2091
S"                                    attributes.get('groupby',None))"
p130
sI2092
S'        fields = adapter.expand_all(fields, tablenames)'
p131
sI2093
S'        return adapter.select(self.query,fields,attributes)'
p132
sI2094
S''
sI2095
S'    def nested_select(self,*fields,**attributes):'
p133
sI2096
S'        return Expression(self.db,self._select(*fields,**attributes))'
p134
sI2097
S''
ssg87
S"(self=<Set (temperatures.day_of_week = 'Monday')>, *fields=[<pydal.objects.Field object>, <pydal.objects.Field object>, <pydal.objects.Field object>, <pydal.objects.Field object>], **attributes={'orderby': 'time'})"
p135
sg89
S'select'
p136
sa(dp137
g66
S'F:\\Github\\python\\HomeAutomation\\web2py\\gluon\\packages\\dal\\pydal\\adapters\\sqlite.py'
p138
sg68
(dp139
S'fields'
p140
S'[<pydal.objects.Field object>, <pydal.objects.Field object>, <pydal.objects.Field object>, <pydal.objects.Field object>]'
p141
sS'self'
p142
S'<pydal.adapters.sqlite.SQLiteAdapter object>'
p143
sS').select'
p144
S'<bound method SQLiteAdapter.select of <pydal.adapters.sqlite.SQLiteAdapter object>>'
p145
sS'attributes'
p146
S"{'orderby': 'time'}"
p147
sS'global SQLiteAdapter'
p148
S"<class 'pydal.adapters.sqlite.SQLiteAdapter'>"
p149
sS'query'
p150
S"<Query (temperatures.day_of_week = 'Monday')>"
p151
sS'builtinsuper'
p152
S"<type 'super'>"
p153
ssg74
I125
sg75
(dp154
I128
S'SPATIALLIBS = {'
p155
sI129
S"    'Windows':'libspatialite',"
p156
sI120
S'        Note that the entire database, rather than one record, is locked'
p157
sI121
S'        (it will be locked eventually anyway by the following UPDATE).'
p158
sI122
S'        """'
p159
sI123
S"        if attributes.get('for_update', False) and not 'cache' in attributes:"
p160
sI124
S"            self.execute('BEGIN IMMEDIATE TRANSACTION;')"
p161
sI125
S'        return super(SQLiteAdapter, self).select(query, fields, attributes)'
p162
sI126
S''
sI127
S''
ssg87
S"(self=<pydal.adapters.sqlite.SQLiteAdapter object>, query=<Query (temperatures.day_of_week = 'Monday')>, fields=[<pydal.objects.Field object>, <pydal.objects.Field object>, <pydal.objects.Field object>, <pydal.objects.Field object>], attributes={'orderby': 'time'})"
p163
sg89
g136
sa(dp164
g66
S'F:\\Github\\python\\HomeAutomation\\web2py\\gluon\\packages\\dal\\pydal\\adapters\\base.py'
p165
sg68
(dp166
S'fields'
p167
S'[<pydal.objects.Field object>, <pydal.objects.Field object>, <pydal.objects.Field object>, <pydal.objects.Field object>]'
p168
sS'self'
p169
S'<pydal.adapters.sqlite.SQLiteAdapter object>'
p170
sS'attributes'
p171
S"{'orderby': 'time'}"
p172
sS'self._select_aux'
p173
S'<bound method SQLiteAdapter._select_aux of <pydal.adapters.sqlite.SQLiteAdapter object>>'
p174
sS'sql'
p175
S'"SELECT  temperatures.id, temperatures.day_of_wee...mperatures.day_of_week = \'Monday\') ORDER BY time;"'
p176
ssg74
I1240
sg75
(dp177
I1235
S'            return cache_model('
p178
sI1236
S'                key,'
p179
sI1237
S'                lambda self=self,args=args:self._select_aux(*args),'
p180
sI1238
S'                time_expire)'
p181
sI1239
S'        else:'
p182
sI1240
S'            return self._select_aux(sql,fields,attributes)'
p183
sI1241
S''
sI1242
S'    def _count(self, query, distinct=None):'
p184
sI1243
S'        tablenames = self.tables(query)'
p185
sI1244
S'        if query:'
p186
ssg87
S"(self=<pydal.adapters.sqlite.SQLiteAdapter object>, query=<Query (temperatures.day_of_week = 'Monday')>, fields=[<pydal.objects.Field object>, <pydal.objects.Field object>, <pydal.objects.Field object>, <pydal.objects.Field object>], attributes={'orderby': 'time'})"
p187
sg89
g136
sa(dp188
g66
S'F:\\Github\\python\\HomeAutomation\\web2py\\gluon\\packages\\dal\\pydal\\adapters\\base.py'
p189
sg68
(dp190
S'self'
p191
S'<pydal.adapters.sqlite.SQLiteAdapter object>'
p192
sS'self.execute'
p193
S'<bound method SQLiteAdapter.execute of <pydal.adapters.sqlite.SQLiteAdapter object>>'
p194
sS'sql'
p195
S'"SELECT  temperatures.id, temperatures.day_of_wee...mperatures.day_of_week = \'Monday\') ORDER BY time;"'
p196
ssg74
I1205
sg75
(dp197
I1200
S''
sI1201
S'    def _select_aux(self,sql,fields,attributes):'
p198
sI1202
S'        args_get = attributes.get'
p199
sI1203
S"        cache = args_get('cache',None)"
p200
sI1204
S'        if not cache:'
p201
sI1205
S'            self.execute(sql)'
p202
sI1206
S'            rows = self._fetchall()'
p203
sI1207
S'        else:'
p204
sI1208
S'            (cache_model, time_expire) = cache'
p205
sI1209
S"            key = self.uri + '/' + sql + '/rows'"
p206
ssg87
S'(self=<pydal.adapters.sqlite.SQLiteAdapter object>, sql="SELECT  temperatures.id, temperatures.day_of_wee...mperatures.day_of_week = \'Monday\') ORDER BY time;", fields=[<pydal.objects.Field object>, <pydal.objects.Field object>, <pydal.objects.Field object>, <pydal.objects.Field object>], attributes={\'orderby\': \'time\'})'
p207
sg89
S'_select_aux'
p208
sa(dp209
g66
S'F:\\Github\\python\\HomeAutomation\\web2py\\gluon\\packages\\dal\\pydal\\adapters\\base.py'
p210
sg68
(dp211
S'a'
S'("SELECT  temperatures.id, temperatures.day_of_wee...mperatures.day_of_week = \'Monday\') ORDER BY time;",)'
p212
sS'self'
p213
S'<pydal.adapters.sqlite.SQLiteAdapter object>'
p214
sS'b'
g21
sS'self.log_execute'
p215
S'<bound method SQLiteAdapter.log_execute of <pydal.adapters.sqlite.SQLiteAdapter object>>'
p216
ssg74
I1327
sg75
(dp217
I1322
S'        self.db._timings.append((command,time.time()-t0))'
p218
sI1323
S'        del self.db._timings[:-TIMINGSSIZE]'
p219
sI1324
S'        return ret'
p220
sI1325
S''
sI1326
S'    def execute(self, *a, **b):'
p221
sI1327
S'        return self.log_execute(*a, **b)'
p222
sI1328
S''
sI1329
S'    def represent(self, obj, fieldtype):'
p223
sI1330
S'        field_is_type = fieldtype.startswith'
p224
sI1331
S'        if isinstance(obj, CALLABLETYPES):'
p225
ssg87
S'(self=<pydal.adapters.sqlite.SQLiteAdapter object>, *a=("SELECT  temperatures.id, temperatures.day_of_wee...mperatures.day_of_week = \'Monday\') ORDER BY time;",), **b={})'
p226
sg89
S'execute'
p227
sa(dp228
g66
S'F:\\Github\\python\\HomeAutomation\\web2py\\gluon\\packages\\dal\\pydal\\adapters\\base.py'
p229
sg68
(dp230
S'a'
S'("SELECT  temperatures.id, temperatures.day_of_wee...mperatures.day_of_week = \'Monday\') ORDER BY time;",)'
p231
sS'b'
g21
sS'self'
p232
S'<pydal.adapters.sqlite.SQLiteAdapter object>'
p233
sS'ret'
p234
g95
sS'self.cursor'
p235
S'<sqlite3.Cursor object>'
p236
sS'command'
p237
S'"SELECT  temperatures.id, temperatures.day_of_wee...mperatures.day_of_week = \'Monday\') ORDER BY time;"'
p238
sS'self.cursor.execute'
p239
S'<built-in method execute of sqlite3.Cursor object>'
p240
ssg74
I1321
sg75
(dp241
I1316
S'            command = self.filter_sql_command(command)'
p242
sI1317
S'        if self.db._debug:'
p243
sI1318
S"            self.db.logger.debug('SQL: %s' % command)"
p244
sI1319
S'        self.db._lastsql = command'
p245
sI1320
S'        t0 = time.time()'
p246
sI1321
S'        ret = self.cursor.execute(command, *a[1:], **b)'
p247
sI1322
S'        self.db._timings.append((command,time.time()-t0))'
p248
sI1323
S'        del self.db._timings[:-TIMINGSSIZE]'
p249
sI1324
S'        return ret'
p250
sI1325
S''
ssg87
S'(self=<pydal.adapters.sqlite.SQLiteAdapter object>, *a=("SELECT  temperatures.id, temperatures.day_of_wee...mperatures.day_of_week = \'Monday\') ORDER BY time;",), **b={})'
p251
sg89
S'log_execute'
p252
sasS'pyver'
p253
S'Python 2.7.9: C:\\Python27\\python.exe (prefix: C:\\Python27)'
p254
sS'session'
p255
g61
(S's\x1a\x00\x00\x00<div><table></table></div>'
tRp256
sS'etype'
p257
S"<class 'sqlite3.OperationalError'>"
p258
sS'date'
p259
S'Mon Apr 13 23:55:26 2015'
p260
sS'response'
p261
g61
(S'sW@\x00\x00<div><table><tr><td style="font-weight:bold;vertical-align:top;">body</td><td style="vertical-align:top;">:</td><td><div>&lt;cStringIO.StringO object at 0x037D8D40&gt;</div></td></tr><tr><td style="font-weight:bold;vertical-align:top;">cookies</td><td style="vertical-align:top;">:</td><td><div><table><tr><td style="font-weight:bold;vertical-align:top;">session_id_homeautomation</td><td style="vertical-align:top;">:</td><td><div>127.0.0.1-c2773832-070f-4514-a5ab-257c226f00d1<table><tr><td style="font-weight:bold;vertical-align:top;">comment</td><td style="vertical-align:top;">:</td><td><div></div></td></tr><tr><td style="font-weight:bold;vertical-align:top;">domain</td><td style="vertical-align:top;">:</td><td><div></div></td></tr><tr><td style="font-weight:bold;vertical-align:top;">expires</td><td style="vertical-align:top;">:</td><td><div></div></td></tr><tr><td style="font-weight:bold;vertical-align:top;">httponly</td><td style="vertical-align:top;">:</td><td><div></div></td></tr><tr><td style="font-weight:bold;vertical-align:top;">max-age</td><td style="vertical-align:top;">:</td><td><div></div></td></tr><tr><td style="font-weight:bold;vertical-align:top;">path</td><td style="vertical-align:top;">:</td><td><div>/</div></td></tr><tr><td style="font-weight:bold;vertical-align:top;">secure</td><td style="vertical-align:top;">:</td><td><div></div></td></tr><tr><td style="font-weight:bold;vertical-align:top;">version</td><td style="vertical-align:top;">:</td><td><div></div></td></tr></table></div></td></tr></table></div></td></tr><tr><td style="font-weight:bold;vertical-align:top;">delimiters</td><td style="vertical-align:top;">:</td><td><div><table><tr><td><div>{{</div></td></tr><tr><td><div>}}</div></td></tr></table></div></td></tr><tr><td style="font-weight:bold;vertical-align:top;">files</td><td style="vertical-align:top;">:</td><td><div><table></table></div></td></tr><tr><td style="font-weight:bold;vertical-align:top;">flash</td><td style="vertical-align:top;">:</td><td><div></div></td></tr><tr><td style="font-weight:bold;vertical-align:top;">form_label_separator</td><td style="vertical-align:top;">:</td><td><div></div></td></tr><tr><td style="font-weight:bold;vertical-align:top;">formstyle</td><td style="vertical-align:top;">:</td><td><div>bootstrap3_inline</div></td></tr><tr><td style="font-weight:bold;vertical-align:top;">generic_patterns</td><td style="vertical-align:top;">:</td><td><div><table><tr><td><div>*</div></td></tr></table></div></td></tr><tr><td style="font-weight:bold;vertical-align:top;">google_analytics_id</td><td style="vertical-align:top;">:</td><td><div>None</div></td></tr><tr><td style="font-weight:bold;vertical-align:top;">headers</td><td style="vertical-align:top;">:</td><td><div><table><tr><td style="font-weight:bold;vertical-align:top;">X-Powered-By</td><td style="vertical-align:top;">:</td><td><div>web2py</div></td></tr></table></div></td></tr><tr><td style="font-weight:bold;vertical-align:top;">logo</td><td style="vertical-align:top;">:</td><td><div><a class="navbar-brand" href="http://www.web2py.com/" id="web2py-logo"><b>web<span>2</span>py</b>&trade;&nbsp;</a></div></td></tr><tr><td style="font-weight:bold;vertical-align:top;">menu</td><td style="vertical-align:top;">:</td><td><div><table><tr><td><div><table><tr><td><div>Home</div></td></tr><tr><td><div>False</div></td></tr><tr><td><div>/HomeAutomation/default/index</div></td></tr><tr><td><div><table></table></div></td></tr></table></div></td></tr><tr><td><div><table><tr><td><div>My Sites</div></td></tr><tr><td><div>False</div></td></tr><tr><td><div>/admin/default/site</div></td></tr></table></div></td></tr><tr><td><div><table><tr><td><div>\xe8\xaf\xa5\xe5\xba\x94\xe7\x94\xa8</div></td></tr><tr><td><div>False</div></td></tr><tr><td><div>#</div></td></tr><tr><td><div><table><tr><td><div><table><tr><td><div>Design</div></td></tr><tr><td><div>False</div></td></tr><tr><td><div>/admin/default/design/HomeAutomation</div></td></tr></table></div></td></tr><tr><td><div><li class="divider"></li></div></td></tr><tr><td><div><table><tr><td><div>\xe6\x8e\xa7\xe4\xbb\xb6</div></td></tr><tr><td><div>False</div></td></tr><tr><td><div>/admin/default/edit/HomeAutomation/controllers/settings.py</div></td></tr></table></div></td></tr><tr><td><div><table><tr><td><div>\xe6\x9f\xa5\xe7\x9c\x8b</div></td></tr><tr><td><div>False</div></td></tr><tr><td><div>/admin/default/edit/HomeAutomation/views/settings/thermostat.html</div></td></tr></table></div></td></tr><tr><td><div><table><tr><td><div>\xe6\x95\xb0\xe6\x8d\xae\xe5\xba\x93\xe6\xa8\xa1\xe5\x9e\x8b</div></td></tr><tr><td><div>False</div></td></tr><tr><td><div>/admin/default/edit/HomeAutomation/models/db.py</div></td></tr></table></div></td></tr><tr><td><div><table><tr><td><div>\xe8\x8f\x9c\xe5\x8d\x95\xe6\xa8\xa1\xe5\x9e\x8b(menu)</div></td></tr><tr><td><div>False</div></td></tr><tr><td><div>/admin/default/edit/HomeAutomation/models/menu.py</div></td></tr></table></div></td></tr><tr><td><div><table><tr><td><div>Config.ini</div></td></tr><tr><td><div>False</div></td></tr><tr><td><div>/admin/default/edit/HomeAutomation/private/appconfig.ini</div></td></tr></table></div></td></tr><tr><td><div><table><tr><td><div>\xe7\xbd\x91\xe9\xa1\xb5\xe5\xb8\x83\xe5\xb1\x80</div></td></tr><tr><td><div>False</div></td></tr><tr><td><div>/admin/default/edit/HomeAutomation/views/layout.html</div></td></tr></table></div></td></tr><tr><td><div><table><tr><td><div>\xe7\xbd\x91\xe9\xa1\xb5\xe6\xa0\xb7\xe5\xbc\x8f\xe8\xa1\xa8</div></td></tr><tr><td><div>False</div></td></tr><tr><td><div>/admin/default/edit/HomeAutomation/static/css/web2py-bootstrap3.css</div></td></tr></table></div></td></tr><tr><td><div><table><tr><td><div>\xe6\x95\xb0\xe6\x8d\xae\xe5\xba\x93</div></td></tr><tr><td><div>False</div></td></tr><tr><td><div>/HomeAutomation/appadmin/index</div></td></tr></table></div></td></tr><tr><td><div><table><tr><td><div>Errors</div></td></tr><tr><td><div>False</div></td></tr><tr><td><div>/admin/default/errors/HomeAutomation</div></td></tr></table></div></td></tr><tr><td><div><table><tr><td><div>\xe5\x85\xb3\xe4\xba\x8e</div></td></tr><tr><td><div>False</div></td></tr><tr><td><div>/admin/default/about/HomeAutomation</div></td></tr></table></div></td></tr></table></div></td></tr></table></div></td></tr><tr><td><div><table><tr><td><div>web2py.com</div></td></tr><tr><td><div>False</div></td></tr><tr><td><div>#</div></td></tr><tr><td><div><table><tr><td><div><table><tr><td><div>\xe4\xb8\x8b\xe8\xbd\xbd</div></td></tr><tr><td><div>False</div></td></tr><tr><td><div>http://www.web2py.com/examples/default/download</div></td></tr></table></div></td></tr><tr><td><div><table><tr><td><div>Support</div></td></tr><tr><td><div>False</div></td></tr><tr><td><div>http://www.web2py.com/examples/default/support</div></td></tr></table></div></td></tr><tr><td><div><table><tr><td><div>Demo</div></td></tr><tr><td><div>False</div></td></tr><tr><td><div>http://web2py.com/demo_admin</div></td></tr></table></div></td></tr><tr><td><div><table><tr><td><div>Quick Examples</div></td></tr><tr><td><div>False</div></td></tr><tr><td><div>http://web2py.com/examples/default/examples</div></td></tr></table></div></td></tr><tr><td><div><table><tr><td><div>FAQ</div></td></tr><tr><td><div>False</div></td></tr><tr><td><div>http://web2py.com/AlterEgo</div></td></tr></table></div></td></tr><tr><td><div><table><tr><td><div>\xe8\xa7\x86\xe9\xa2\x91</div></td></tr><tr><td><div>False</div></td></tr><tr><td><div>http://www.web2py.com/examples/default/videos/</div></td></tr></table></div></td></tr><tr><td><div><table><tr><td><div>Free Applications</div></td></tr><tr><td><div>False</div></td></tr><tr><td><div>http://web2py.com/appliances</div></td></tr></table></div></td></tr><tr><td><div><table><tr><td><div>Plugins</div></td></tr><tr><td><div>False</div></td></tr><tr><td><div>http://web2py.com/plugins</div></td></tr></table></div></td></tr><tr><td><div><table><tr><td><div>Recipes</div></td></tr><tr><td><div>False</div></td></tr><tr><td><div>http://web2pyslices.com/</div></td></tr></table></div></td></tr></table></div></td></tr></table></div></td></tr><tr><td><div><table><tr><td><div>Documentation</div></td></tr><tr><td><div>False</div></td></tr><tr><td><div>#</div></td></tr><tr><td><div><table><tr><td><div><table><tr><td><div>Online book</div></td></tr><tr><td><div>False</div></td></tr><tr><td><div>http://www.web2py.com/book</div></td></tr></table></div></td></tr><tr><td><div><li class="divider"></li></div></td></tr><tr><td><div><table><tr><td><div>Preface</div></td></tr><tr><td><div>False</div></td></tr><tr><td><div>http://www.web2py.com/book/default/chapter/00</div></td></tr></table></div></td></tr><tr><td><div><table><tr><td><div>Introduction</div></td></tr><tr><td><div>False</div></td></tr><tr><td><div>http://www.web2py.com/book/default/chapter/01</div></td></tr></table></div></td></tr><tr><td><div><table><tr><td><div>Python</div></td></tr><tr><td><div>False</div></td></tr><tr><td><div>http://www.web2py.com/book/default/chapter/02</div></td></tr></table></div></td></tr><tr><td><div><table><tr><td><div>\xe6\xa6\x82\xe8\xa7\x88</div></td></tr><tr><td><div>False</div></td></tr><tr><td><div>http://www.web2py.com/book/default/chapter/03</div></td></tr></table></div></td></tr><tr><td><div><table><tr><td><div>The Core</div></td></tr><tr><td><div>False</div></td></tr><tr><td><div>http://www.web2py.com/book/default/chapter/04</div></td></tr></table></div></td></tr><tr><td><div><table><tr><td><div>\xe8\xa7\x86\xe5\x9b\xbe</div></td></tr><tr><td><div>False</div></td></tr><tr><td><div>http://www.web2py.com/book/default/chapter/05</div></td></tr></table></div></td></tr><tr><td><div><table><tr><td><div>\xe6\x95\xb0\xe6\x8d\xae\xe5\xba\x93</div></td></tr><tr><td><div>False</div></td></tr><tr><td><div>http://www.web2py.com/book/default/chapter/06</div></td></tr></table></div></td></tr><tr><td><div><table><tr><td><div>Forms and Validators</div></td></tr><tr><td><div>False</div></td></tr><tr><td><div>http://www.web2py.com/book/default/chapter/07</div></td></tr></table></div></td></tr><tr><td><div><table><tr><td><div>Email and SMS</div></td></tr><tr><td><div>False</div></td></tr><tr><td><div>http://www.web2py.com/book/default/chapter/08</div></td></tr></table></div></td></tr><tr><td><div><table><tr><td><div>Access Control</div></td></tr><tr><td><div>False</div></td></tr><tr><td><div>http://www.web2py.com/book/default/chapter/09</div></td></tr></table></div></td></tr><tr><td><div><table><tr><td><div>Services</div></td></tr><tr><td><div>False</div></td></tr><tr><td><div>http://www.web2py.com/book/default/chapter/10</div></td></tr></table></div></td></tr><tr><td><div><table><tr><td><div>Ajax Recipes</div></td></tr><tr><td><div>False</div></td></tr><tr><td><div>http://www.web2py.com/book/default/chapter/11</div></td></tr></table></div></td></tr><tr><td><div><table><tr><td><div>Components and Plugins</div></td></tr><tr><td><div>False</div></td></tr><tr><td><div>http://www.web2py.com/book/default/chapter/12</div></td></tr></table></div></td></tr><tr><td><div><table><tr><td><div>Deployment Recipes</div></td></tr><tr><td><div>False</div></td></tr><tr><td><div>http://www.web2py.com/book/default/chapter/13</div></td></tr></table></div></td></tr><tr><td><div><table><tr><td><div>Other Recipes</div></td></tr><tr><td><div>False</div></td></tr><tr><td><div>http://www.web2py.com/book/default/chapter/14</div></td></tr></table></div></td></tr><tr><td><div><table><tr><td><div>Helping web2py</div></td></tr><tr><td><div>False</div></td></tr><tr><td><div>http://www.web2py.com/book/default/chapter/15</div></td></tr></table></div></td></tr><tr><td><div><table><tr><td><div>Buy web2py\'s book</div></td></tr><tr><td><div>False</div></td></tr><tr><td><div>http://stores.lulu.com/web2py</div></td></tr></table></div></td></tr></table></div></td></tr></table></div></td></tr><tr><td><div><table><tr><td><div>Community</div></td></tr><tr><td><div>False</div></td></tr><tr><td><div>None</div></td></tr><tr><td><div><table><tr><td><div><table><tr><td><div>Groups</div></td></tr><tr><td><div>False</div></td></tr><tr><td><div>http://www.web2py.com/examples/default/usergroups</div></td></tr></table></div></td></tr><tr><td><div><table><tr><td><div>Twitter</div></td></tr><tr><td><div>False</div></td></tr><tr><td><div>http://twitter.com/web2py</div></td></tr></table></div></td></tr><tr><td><div><table><tr><td><div>Live Chat</div></td></tr><tr><td><div>False</div></td></tr><tr><td><div>http://webchat.freenode.net/?channels=web2py</div></td></tr></table></div></td></tr></table></div></td></tr></table></div></td></tr></table></div></td></tr><tr><td style="font-weight:bold;vertical-align:top;">meta</td><td style="vertical-align:top;">:</td><td><div><table><tr><td style="font-weight:bold;vertical-align:top;">author</td><td style="vertical-align:top;">:</td><td><div>Your Name &lt;you@example.com&gt;</div></td></tr><tr><td style="font-weight:bold;vertical-align:top;">description</td><td style="vertical-align:top;">:</td><td><div>a cool new app</div></td></tr><tr><td style="font-weight:bold;vertical-align:top;">generator</td><td style="vertical-align:top;">:</td><td><div>Web2py Web Framework</div></td></tr><tr><td style="font-weight:bold;vertical-align:top;">keywords</td><td style="vertical-align:top;">:</td><td><div>web2py, python, framework</div></td></tr></table></div></td></tr><tr><td style="font-weight:bold;vertical-align:top;">models_to_run</td><td style="vertical-align:top;">:</td><td><div><table><tr><td><div>^\\w+\\.py$</div></td></tr><tr><td><div>^settings/\\w+\\.py$</div></td></tr><tr><td><div>^settings/thermostat/\\w+\\.py$</div></td></tr></table></div></td></tr><tr><td style="font-weight:bold;vertical-align:top;">postprocessing</td><td style="vertical-align:top;">:</td><td><div><table></table></div></td></tr><tr><td style="font-weight:bold;vertical-align:top;">session_client</td><td style="vertical-align:top;">:</td><td><div>127.0.0.1</div></td></tr><tr><td style="font-weight:bold;vertical-align:top;">session_cookie_compression_level</td><td style="vertical-align:top;">:</td><td><div>None</div></td></tr><tr><td style="font-weight:bold;vertical-align:top;">session_cookie_expires</td><td style="vertical-align:top;">:</td><td><div>None</div></td></tr><tr><td style="font-weight:bold;vertical-align:top;">session_cookie_key</td><td style="vertical-align:top;">:</td><td><div>None</div></td></tr><tr><td style="font-weight:bold;vertical-align:top;">session_data_name</td><td style="vertical-align:top;">:</td><td><div>session_data_homeautomation</div></td></tr><tr><td style="font-weight:bold;vertical-align:top;">session_file</td><td style="vertical-align:top;">:</td><td><div>&lt;open file &#x27;F:\\\\Github\\\\python\\\\HomeAutomation\\\\web2py\\\\applications\\\\HomeAutomation\\\\sessions\\\\072\\\\1c7\\\\127.0.0.1-c2773832-070f-4514-a5ab-257c226f00d1&#x27;, mode &#x27;rb+&#x27; at 0x03BB25F8&gt;</div></td></tr><tr><td style="font-weight:bold;vertical-align:top;">session_filename</td><td style="vertical-align:top;">:</td><td><div>F:\\Github\\python\\HomeAutomation\\web2py\\applications\\HomeAutomation\\sessions\\127.0.0.1-c2773832-070f-4514-a5ab-257c226f00d1</div></td></tr><tr><td style="font-weight:bold;vertical-align:top;">session_hash</td><td style="vertical-align:top;">:</td><td><div>0ae024d25bebc914fd6d3805c0b51a09</div></td></tr><tr><td style="font-weight:bold;vertical-align:top;">session_id</td><td style="vertical-align:top;">:</td><td><div>127.0.0.1-c2773832-070f-4514-a5ab-257c226f00d1</div></td></tr><tr><td style="font-weight:bold;vertical-align:top;">session_id_name</td><td style="vertical-align:top;">:</td><td><div>session_id_homeautomation</div></td></tr><tr><td style="font-weight:bold;vertical-align:top;">session_locked</td><td style="vertical-align:top;">:</td><td><div>True</div></td></tr><tr><td style="font-weight:bold;vertical-align:top;">session_masterapp</td><td style="vertical-align:top;">:</td><td><div>HomeAutomation</div></td></tr><tr><td style="font-weight:bold;vertical-align:top;">session_new</td><td style="vertical-align:top;">:</td><td><div>False</div></td></tr><tr><td style="font-weight:bold;vertical-align:top;">session_storage_type</td><td style="vertical-align:top;">:</td><td><div>file</div></td></tr><tr><td style="font-weight:bold;vertical-align:top;">status</td><td style="vertical-align:top;">:</td><td><div>200</div></td></tr><tr><td style="font-weight:bold;vertical-align:top;">subtitle</td><td style="vertical-align:top;">:</td><td><div></div></td></tr><tr><td style="font-weight:bold;vertical-align:top;">title</td><td style="vertical-align:top;">:</td><td><div>Homeautomation</div></td></tr><tr><td style="font-weight:bold;vertical-align:top;">view</td><td style="vertical-align:top;">:</td><td><div>settings/thermostat.html</div></td></tr></table></div>'
tRp262
sS'locals'
p263
(dp264
S'a'
S'("SELECT  temperatures.id, temperatures.day_of_wee...mperatures.day_of_week = \'Monday\') ORDER BY time;",)'
p265
sS'self'
p266
S'<pydal.adapters.sqlite.SQLiteAdapter object>'
p267
sS'b'
g21
sS'command'
p268
S'"SELECT  temperatures.id, temperatures.day_of_wee...mperatures.day_of_week = \'Monday\') ORDER BY time;"'
p269
sS't0'
p270
S'1428983726.128'
p271
sssS'traceback'
p272
S'Traceback (most recent call last):\n  File "F:\\Github\\python\\HomeAutomation\\web2py\\gluon\\restricted.py", line 227, in restricted\n    exec ccode in environment\n  File "F:\\Github\\python\\HomeAutomation\\web2py\\applications\\HomeAutomation\\views\\settings/thermostat.html", line 4, in <module>\n    <meta charset="UTF-8">\n  File "F:\\Github\\python\\HomeAutomation\\web2py\\gluon\\packages\\dal\\pydal\\objects.py", line 2093, in select\n    return adapter.select(self.query,fields,attributes)\n  File "F:\\Github\\python\\HomeAutomation\\web2py\\gluon\\packages\\dal\\pydal\\adapters\\sqlite.py", line 125, in select\n    return super(SQLiteAdapter, self).select(query, fields, attributes)\n  File "F:\\Github\\python\\HomeAutomation\\web2py\\gluon\\packages\\dal\\pydal\\adapters\\base.py", line 1240, in select\n    return self._select_aux(sql,fields,attributes)\n  File "F:\\Github\\python\\HomeAutomation\\web2py\\gluon\\packages\\dal\\pydal\\adapters\\base.py", line 1205, in _select_aux\n    self.execute(sql)\n  File "F:\\Github\\python\\HomeAutomation\\web2py\\gluon\\packages\\dal\\pydal\\adapters\\base.py", line 1327, in execute\n    return self.log_execute(*a, **b)\n  File "F:\\Github\\python\\HomeAutomation\\web2py\\gluon\\packages\\dal\\pydal\\adapters\\base.py", line 1321, in log_execute\n    ret = self.cursor.execute(command, *a[1:], **b)\nOperationalError: no such column: time\n'
p273
s.