(dp1
S'output'
p2
S"<type 'exceptions.NameError'> global name 'ae' is not defined"
p3
sS'layer'
p4
S'C:\\Users\\Justin\\Documents\\GitHub\\HomeAutomation\\web2py\\applications\\HomeAutomation\\controllers/settings.py'
p5
sS'code'
p6
S'__author__ = \'DragonJujo\'\n# -*- coding: utf-8 -*-\n# this file is released under public domain and you can use without limitations\n\n#########################################################################\n## This is a sample controller\n## - index is the default action of any application\n## - user is required for authentication and authorization\n## - download is for downloading files uploaded in the db (does streaming)\n#########################################################################\n\ndef thermostat():\n    """\n    example action using the internationalization operator T and flash\n    rendered by views/default/index.html or views/generic.html\n\n    if you need a simple wiki simply replace the two lines below with:\n    return auth.wiki()\n    """\n    # response.flash = T("Hello")\n    temps = SQLTABLE(db().select(db.temperatures.ALL), headers=\'fieldname:capitalize\')\n    return dict(message=T(\'Welcome to web2py!\'), temps=temps)\n\n\ndef user():\n    """\n    exposes:\n    http://..../[app]/default/user/login\n    http://..../[app]/default/user/logout\n    http://..../[app]/default/user/register\n    http://..../[app]/default/user/profile\n    http://..../[app]/default/user/retrieve_password\n    http://..../[app]/default/user/change_password\n    http://..../[app]/default/user/manage_users (requires membership in\n    use @auth.requires_login()\n        @auth.requires_membership(\'group name\')\n        @auth.requires_permission(\'read\',\'table name\',record_id)\n    to decorate functions that need access control\n    """\n    return dict(form=auth())\n\n\n@cache.action()\ndef download():\n    """\n    allows downloading of uploaded files\n    http://..../[app]/default/download/[filename]\n    """\n    return response.download(request, db)\n\n\ndef call():\n    """\n    exposes services. for example:\n    http://..../[app]/default/call/jsonrpc\n    decorate with @services.jsonrpc the functions to expose\n    supports xml, json, xmlrpc, jsonrpc, amfrpc, rss, csv\n    """\n    return service()\n\ndef form():\n    """ a simple entry form with various types of objects """\n\n    form = FORM(TABLE(\n        TR(\'Time:\', INPUT(_type=\'time\', _name=\'timestart\',\n           requires=IS_TIME(\'Enter time in the format HH:MM AM\'))),\n        TR(\'Day\', SELECT(\'Monday\', \'Tuesday\', \'Wednesday\', \'Thursday\', \'Friday\', \'Saturday\', \'Sunday\', _name=\'dayofweek\',\n           requires=IS_IN_SET([\'Monday\', \'Tuesday\', \'Wednesday\', \'Thursday\', \'Friday\', \'Saturday\', \'Sunday\']))),\n        TR(\'Temperature:\', INPUT(_type=\'text\', _name=\'temperature\',\n           requires=IS_INT_IN_RANGE(40, 90, \'Enter a temperature between 40 and 90\'))),\n        TR(\'\', INPUT(_type=\'submit\', _value=\'SUBMIT\')),\n    ))\n    if form.process().accepted:\n        response.flash = \'form accepted\'\n        tempsetting = db((db.temperatures.dayofweek == form.vars.dayofweek) &\n                         (db.temperatures.timestart == form.vars.timestart)).select().first()\n        if tempsetting:\n            tempsetting.update_record(temperature=form.vars.temperature)\n        else:\n            db.temperatures.insert(dayofweek=form.vars.dayofweek,\n                                   timestart=form.vars.timestart,\n                                   temperature=form.vars.temperature)\n        redirect(URL(\'thermostat\'))\n    elif form.errors:\n        response.flash = \'form is invalid\'\n    else:\n        response.flash = \'please fill the form\'\n    return dict(form=form, vars=form.vars)\n\nresponse._vars=response._caller(thermostat)\n'
p7
sS'snapshot'
p8
(dp9
S'exception'
p10
(dp11
S'__hash__'
p12
S"<method-wrapper '__hash__' of exceptions.NameError object>"
p13
sS'__setattr__'
p14
S"<method-wrapper '__setattr__' of exceptions.NameError object>"
p15
sS'__reduce_ex__'
p16
S'<built-in method __reduce_ex__ of exceptions.NameError object>'
p17
sS'__getslice__'
p18
S"<method-wrapper '__getslice__' of exceptions.NameError object>"
p19
sS'__getitem__'
p20
S"<method-wrapper '__getitem__' of exceptions.NameError object>"
p21
sS'__setstate__'
p22
S'<built-in method __setstate__ of exceptions.NameError object>'
p23
sS'__reduce__'
p24
S'<built-in method __reduce__ of exceptions.NameError object>'
p25
sS'__str__'
p26
S"<method-wrapper '__str__' of exceptions.NameError object>"
p27
sS'__format__'
p28
S'<built-in method __format__ of exceptions.NameError object>'
p29
sS'__getattribute__'
p30
S"<method-wrapper '__getattribute__' of exceptions.NameError object>"
p31
sS'__class__'
p32
S"<type 'exceptions.NameError'>"
p33
sS'__unicode__'
p34
S'<built-in method __unicode__ of exceptions.NameError object>'
p35
sS'__delattr__'
p36
S"<method-wrapper '__delattr__' of exceptions.NameError object>"
p37
sS'__subclasshook__'
p38
S'<built-in method __subclasshook__ of type object>'
p39
sS'__repr__'
p40
S"<method-wrapper '__repr__' of exceptions.NameError object>"
p41
sS'__dict__'
p42
S'{}'
p43
sS'args'
p44
S'("global name \'ae\' is not defined",)'
p45
sS'__sizeof__'
p46
S'<built-in method __sizeof__ of exceptions.NameError object>'
p47
sS'__doc__'
p48
S"'Name not found globally.'"
p49
sS'__init__'
p50
S"<method-wrapper '__init__' of exceptions.NameError object>"
p51
sS'__new__'
p52
S'<built-in method __new__ of type object>'
p53
ssS'evalue'
p54
S"global name 'ae' is not defined"
p55
sS'request'
p56
cgluon.html
XML_unpickle
p57
(S's\xa7`\x00\x00<div><table><tr><td style="font-weight:bold;vertical-align:top;">ajax</td><td style="vertical-align:top;">:</td><td><div>False</div></td></tr><tr><td style="font-weight:bold;vertical-align:top;">application</td><td style="vertical-align:top;">:</td><td><div>HomeAutomation</div></td></tr><tr><td style="font-weight:bold;vertical-align:top;">args</td><td style="vertical-align:top;">:</td><td><div><table></table></div></td></tr><tr><td style="font-weight:bold;vertical-align:top;">cid</td><td style="vertical-align:top;">:</td><td><div>None</div></td></tr><tr><td style="font-weight:bold;vertical-align:top;">client</td><td style="vertical-align:top;">:</td><td><div>127.0.0.1</div></td></tr><tr><td style="font-weight:bold;vertical-align:top;">controller</td><td style="vertical-align:top;">:</td><td><div>settings</div></td></tr><tr><td style="font-weight:bold;vertical-align:top;">cookies</td><td style="vertical-align:top;">:</td><td><div><table><tr><td style="font-weight:bold;vertical-align:top;">session_id_admin</td><td style="vertical-align:top;">:</td><td><div>127.0.0.1-a7ce69f1-2e37-4ada-9027-b0ae49e54f4e<table><tr><td style="font-weight:bold;vertical-align:top;">comment</td><td style="vertical-align:top;">:</td><td><div></div></td></tr><tr><td style="font-weight:bold;vertical-align:top;">domain</td><td style="vertical-align:top;">:</td><td><div></div></td></tr><tr><td style="font-weight:bold;vertical-align:top;">expires</td><td style="vertical-align:top;">:</td><td><div></div></td></tr><tr><td style="font-weight:bold;vertical-align:top;">httponly</td><td style="vertical-align:top;">:</td><td><div></div></td></tr><tr><td style="font-weight:bold;vertical-align:top;">max-age</td><td style="vertical-align:top;">:</td><td><div></div></td></tr><tr><td style="font-weight:bold;vertical-align:top;">path</td><td style="vertical-align:top;">:</td><td><div></div></td></tr><tr><td style="font-weight:bold;vertical-align:top;">secure</td><td style="vertical-align:top;">:</td><td><div></div></td></tr><tr><td style="font-weight:bold;vertical-align:top;">version</td><td style="vertical-align:top;">:</td><td><div></div></td></tr></table></div></td></tr><tr><td style="font-weight:bold;vertical-align:top;">session_id_homeautomation</td><td style="vertical-align:top;">:</td><td><div>127.0.0.1-a6246a37-0935-419f-8625-118ee9487c9b<table><tr><td style="font-weight:bold;vertical-align:top;">comment</td><td style="vertical-align:top;">:</td><td><div></div></td></tr><tr><td style="font-weight:bold;vertical-align:top;">domain</td><td style="vertical-align:top;">:</td><td><div></div></td></tr><tr><td style="font-weight:bold;vertical-align:top;">expires</td><td style="vertical-align:top;">:</td><td><div></div></td></tr><tr><td style="font-weight:bold;vertical-align:top;">httponly</td><td style="vertical-align:top;">:</td><td><div></div></td></tr><tr><td style="font-weight:bold;vertical-align:top;">max-age</td><td style="vertical-align:top;">:</td><td><div></div></td></tr><tr><td style="font-weight:bold;vertical-align:top;">path</td><td style="vertical-align:top;">:</td><td><div></div></td></tr><tr><td style="font-weight:bold;vertical-align:top;">secure</td><td style="vertical-align:top;">:</td><td><div></div></td></tr><tr><td style="font-weight:bold;vertical-align:top;">version</td><td style="vertical-align:top;">:</td><td><div></div></td></tr></table></div></td></tr><tr><td style="font-weight:bold;vertical-align:top;">session_id_welcome</td><td style="vertical-align:top;">:</td><td><div>127.0.0.1-1ecdb3c3-7f89-498d-9451-3b0ffef332f6<table><tr><td style="font-weight:bold;vertical-align:top;">comment</td><td style="vertical-align:top;">:</td><td><div></div></td></tr><tr><td style="font-weight:bold;vertical-align:top;">domain</td><td style="vertical-align:top;">:</td><td><div></div></td></tr><tr><td style="font-weight:bold;vertical-align:top;">expires</td><td style="vertical-align:top;">:</td><td><div></div></td></tr><tr><td style="font-weight:bold;vertical-align:top;">httponly</td><td style="vertical-align:top;">:</td><td><div></div></td></tr><tr><td style="font-weight:bold;vertical-align:top;">max-age</td><td style="vertical-align:top;">:</td><td><div></div></td></tr><tr><td style="font-weight:bold;vertical-align:top;">path</td><td style="vertical-align:top;">:</td><td><div></div></td></tr><tr><td style="font-weight:bold;vertical-align:top;">secure</td><td style="vertical-align:top;">:</td><td><div></div></td></tr><tr><td style="font-weight:bold;vertical-align:top;">version</td><td style="vertical-align:top;">:</td><td><div></div></td></tr></table></div></td></tr></table></div></td></tr><tr><td style="font-weight:bold;vertical-align:top;">env</td><td style="vertical-align:top;">:</td><td><div><table><tr><td style="font-weight:bold;vertical-align:top;">HTTP_ACCEPT</td><td style="vertical-align:top;">:</td><td><div>text/html,application/xhtml+xml,application/xml;q=0.9,*/*;q=0.8</div></td></tr><tr><td style="font-weight:bold;vertical-align:top;">HTTP_ACCEPT_ENCODING</td><td style="vertical-align:top;">:</td><td><div>gzip, deflate</div></td></tr><tr><td style="font-weight:bold;vertical-align:top;">HTTP_ACCEPT_LANGUAGE</td><td style="vertical-align:top;">:</td><td><div>en-US,en;q=0.5</div></td></tr><tr><td style="font-weight:bold;vertical-align:top;">HTTP_CACHE_CONTROL</td><td style="vertical-align:top;">:</td><td><div>max-age=0</div></td></tr><tr><td style="font-weight:bold;vertical-align:top;">HTTP_CONNECTION</td><td style="vertical-align:top;">:</td><td><div>keep-alive</div></td></tr><tr><td style="font-weight:bold;vertical-align:top;">HTTP_COOKIE</td><td style="vertical-align:top;">:</td><td><div>session_id_welcome=127.0.0.1-1ecdb3c3-7f89-498d-9451-3b0ffef332f6; session_id_admin=127.0.0.1-a7ce69f1-2e37-4ada-9027-b0ae49e54f4e; session_id_homeautomation=127.0.0.1-a6246a37-0935-419f-8625-118ee9487c9b</div></td></tr><tr><td style="font-weight:bold;vertical-align:top;">HTTP_HOST</td><td style="vertical-align:top;">:</td><td><div>127.0.0.1:8000</div></td></tr><tr><td style="font-weight:bold;vertical-align:top;">HTTP_REFERER</td><td style="vertical-align:top;">:</td><td><div>http://127.0.0.1:8000/HomeAutomation/settings/form.html</div></td></tr><tr><td style="font-weight:bold;vertical-align:top;">HTTP_USER_AGENT</td><td style="vertical-align:top;">:</td><td><div>Mozilla/5.0 (Windows NT 6.3; WOW64; rv:36.0) Gecko/20100101 Firefox/36.0</div></td></tr><tr><td style="font-weight:bold;vertical-align:top;">PATH_INFO</td><td style="vertical-align:top;">:</td><td><div>/HomeAutomation/settings/thermostat</div></td></tr><tr><td style="font-weight:bold;vertical-align:top;">QUERY_STRING</td><td style="vertical-align:top;">:</td><td><div></div></td></tr><tr><td style="font-weight:bold;vertical-align:top;">REMOTE_ADDR</td><td style="vertical-align:top;">:</td><td><div>127.0.0.1</div></td></tr><tr><td style="font-weight:bold;vertical-align:top;">REMOTE_PORT</td><td style="vertical-align:top;">:</td><td><div>56350</div></td></tr><tr><td style="font-weight:bold;vertical-align:top;">REQUEST_METHOD</td><td style="vertical-align:top;">:</td><td><div>GET</div></td></tr><tr><td style="font-weight:bold;vertical-align:top;">SCRIPT_NAME</td><td style="vertical-align:top;">:</td><td><div></div></td></tr><tr><td style="font-weight:bold;vertical-align:top;">SERVER_NAME</td><td style="vertical-align:top;">:</td><td><div>DragonJujo-TB1</div></td></tr><tr><td style="font-weight:bold;vertical-align:top;">SERVER_PORT</td><td style="vertical-align:top;">:</td><td><div>8000</div></td></tr><tr><td style="font-weight:bold;vertical-align:top;">SERVER_PROTOCOL</td><td style="vertical-align:top;">:</td><td><div>HTTP/1.1</div></td></tr><tr><td style="font-weight:bold;vertical-align:top;">SERVER_SOFTWARE</td><td style="vertical-align:top;">:</td><td><div>Rocket 1.2.6</div></td></tr><tr><td style="font-weight:bold;vertical-align:top;">app_folders</td><td style="vertical-align:top;">:</td><td><div>set([&#x27;C:\\\\Users\\\\Justin\\\\Documents\\\\GitHub\\\\HomeAutomation\\\\web2py\\\\applications\\\\HomeAutomation\\\\&#x27;, &#x27;C:\\\\Users\\\\Justin\\\\Documents\\\\GitHub\\\\HomeAutomation\\\\web2py\\\\applications\\\\admin\\\\&#x27;, &#x27;C:\\\\Users\\\\Justin\\\\Documents\\\\GitHub\\\\HomeAutomation\\\\web2py\\\\applications\\\\welcome\\\\&#x27;])</div></td></tr><tr><td style="font-weight:bold;vertical-align:top;">applications_parent</td><td style="vertical-align:top;">:</td><td><div>C:\\Users\\Justin\\Documents\\GitHub\\HomeAutomation\\web2py</div></td></tr><tr><td style="font-weight:bold;vertical-align:top;">cmd_args</td><td style="vertical-align:top;">:</td><td><div><table></table></div></td></tr><tr><td style="font-weight:bold;vertical-align:top;">cmd_options</td><td style="vertical-align:top;">:</td><td><div>&lt;Values at 0x331b748: {&#x27;verbose&#x27;: False, &#x27;ip&#x27;: &#x27;127.0.0.1&#x27;, &#x27;debuglevel&#x27;: 30, &#x27;with_scheduler&#x27;: False, &#x27;ips&#x27;: [], &#x27;shutdown_timeout&#x27;: 5, &#x27;taskbar&#x27;: False, &#x27;with_coverage&#x27;: False, &#x27;scheduler_groups&#x27;: None, &#x27;port&#x27;: 8000, &#x27;maxthreads&#x27;: None, &#x27;softcron&#x27;: False, &#x27;server_name&#x27;: &#x27;DragonJujo-TB1&#x27;, &#x27;bpython&#x27;: False, &#x27;nogui&#x27;: False, &#x27;pid_filename&#x27;: &#x27;httpserver.pid&#x27;, &#x27;print_errors&#x27;: False, &#x27;extcron&#x27;: False, &#x27;runcron&#x27;: False, &#x27;run_system_tests&#x27;: False, &#x27;test&#x27;: None, &#x27;folder&#x27;: &#x27;C:\\\\Users\\\\Justin\\\\Documents\\\\GitHub\\\\HomeAutomation\\\\web2py&#x27;, &#x27;config&#x27;: &#x27;&#x27;, &#x27;minthreads&#x27;: None, &#x27;shell&#x27;: None, &#x27;run&#x27;: &#x27;&#x27;, &#x27;log_filename&#x27;: &#x27;httpserver.log&#x27;, &#x27;profiler_dir&#x27;: None, &#x27;args&#x27;: [&#x27;&#x27;], &#x27;socket_timeout&#x27;: 5, &#x27;ssl_ca_certificate&#x27;: None, &#x27;scheduler&#x27;: None, &#x27;interfaces&#x27;: None, &#x27;ssl_private_key&#x27;: &#x27;&#x27;, &#x27;gae&#x27;: None, &#x27;password&#x27;: &#x27;&lt;ask&gt;&#x27;, &#x27;request_queue_size&#x27;: 5, &#x27;ssl_certificate&#x27;: &#x27;&#x27;, &#x27;cronjob&#x27;: False, &#x27;numthreads&#x27;: None, &#x27;quiet&#x27;: False, &#x27;import_models&#x27;: False, &#x27;timeout&#x27;: 10, &#x27;plain&#x27;: False, &#x27;nobanner&#x27;: False}&gt;</div></td></tr><tr><td style="font-weight:bold;vertical-align:top;">db_sessions</td><td style="vertical-align:top;">:</td><td><div>set([])</div></td></tr><tr><td style="font-weight:bold;vertical-align:top;">debugging</td><td style="vertical-align:top;">:</td><td><div>False</div></td></tr><tr><td style="font-weight:bold;vertical-align:top;">gluon_parent</td><td style="vertical-align:top;">:</td><td><div>C:\\Users\\Justin\\Documents\\GitHub\\HomeAutomation\\web2py</div></td></tr><tr><td style="font-weight:bold;vertical-align:top;">http_accept</td><td style="vertical-align:top;">:</td><td><div>text/html,application/xhtml+xml,application/xml;q=0.9,*/*;q=0.8</div></td></tr><tr><td style="font-weight:bold;vertical-align:top;">http_accept_encoding</td><td style="vertical-align:top;">:</td><td><div>gzip, deflate</div></td></tr><tr><td style="font-weight:bold;vertical-align:top;">http_accept_language</td><td style="vertical-align:top;">:</td><td><div>en-US,en;q=0.5</div></td></tr><tr><td style="font-weight:bold;vertical-align:top;">http_cache_control</td><td style="vertical-align:top;">:</td><td><div>max-age=0</div></td></tr><tr><td style="font-weight:bold;vertical-align:top;">http_connection</td><td style="vertical-align:top;">:</td><td><div>keep-alive</div></td></tr><tr><td style="font-weight:bold;vertical-align:top;">http_cookie</td><td style="vertical-align:top;">:</td><td><div>session_id_welcome=127.0.0.1-1ecdb3c3-7f89-498d-9451-3b0ffef332f6; session_id_admin=127.0.0.1-a7ce69f1-2e37-4ada-9027-b0ae49e54f4e; session_id_homeautomation=127.0.0.1-a6246a37-0935-419f-8625-118ee9487c9b</div></td></tr><tr><td style="font-weight:bold;vertical-align:top;">http_host</td><td style="vertical-align:top;">:</td><td><div>127.0.0.1:8000</div></td></tr><tr><td style="font-weight:bold;vertical-align:top;">http_referer</td><td style="vertical-align:top;">:</td><td><div>http://127.0.0.1:8000/HomeAutomation/settings/form.html</div></td></tr><tr><td style="font-weight:bold;vertical-align:top;">http_user_agent</td><td style="vertical-align:top;">:</td><td><div>Mozilla/5.0 (Windows NT 6.3; WOW64; rv:36.0) Gecko/20100101 Firefox/36.0</div></td></tr><tr><td style="font-weight:bold;vertical-align:top;">is_jython</td><td style="vertical-align:top;">:</td><td><div>False</div></td></tr><tr><td style="font-weight:bold;vertical-align:top;">is_pypy</td><td style="vertical-align:top;">:</td><td><div>False</div></td></tr><tr><td style="font-weight:bold;vertical-align:top;">is_source</td><td style="vertical-align:top;">:</td><td><div>True</div></td></tr><tr><td style="font-weight:bold;vertical-align:top;">local_hosts</td><td style="vertical-align:top;">:</td><td><div><table><tr><td><div>DragonJujo-TB1.osuwireless.ohio-state.edu</div></td></tr><tr><td><div>fe80::2460:2ae2:7301:a2d%8</div></td></tr><tr><td><div>2001:0:9d38:6ab8:2460:2ae2:7301:a2d</div></td></tr><tr><td><div>::ffff:127.0.0.1</div></td></tr><tr><td><div>::1</div></td></tr><tr><td><div>DragonJujo-TB1</div></td></tr><tr><td><div>172.31.42.207</div></td></tr><tr><td><div>fe80::1c00:2a19:22ef:d494%3</div></td></tr><tr><td><div>127.0.0.1</div></td></tr></table></div></td></tr><tr><td style="font-weight:bold;vertical-align:top;">path_info</td><td style="vertical-align:top;">:</td><td><div>/HomeAutomation/settings/thermostat</div></td></tr><tr><td style="font-weight:bold;vertical-align:top;">query_string</td><td style="vertical-align:top;">:</td><td><div></div></td></tr><tr><td style="font-weight:bold;vertical-align:top;">remote_addr</td><td style="vertical-align:top;">:</td><td><div>127.0.0.1</div></td></tr><tr><td style="font-weight:bold;vertical-align:top;">remote_port</td><td style="vertical-align:top;">:</td><td><div>56350</div></td></tr><tr><td style="font-weight:bold;vertical-align:top;">request_method</td><td style="vertical-align:top;">:</td><td><div>GET</div></td></tr><tr><td style="font-weight:bold;vertical-align:top;">request_uri</td><td style="vertical-align:top;">:</td><td><div>/HomeAutomation/settings/thermostat</div></td></tr><tr><td style="font-weight:bold;vertical-align:top;">script_name</td><td style="vertical-align:top;">:</td><td><div></div></td></tr><tr><td style="font-weight:bold;vertical-align:top;">server_name</td><td style="vertical-align:top;">:</td><td><div>DragonJujo-TB1</div></td></tr><tr><td style="font-weight:bold;vertical-align:top;">server_port</td><td style="vertical-align:top;">:</td><td><div>8000</div></td></tr><tr><td style="font-weight:bold;vertical-align:top;">server_protocol</td><td style="vertical-align:top;">:</td><td><div>HTTP/1.1</div></td></tr><tr><td style="font-weight:bold;vertical-align:top;">server_software</td><td style="vertical-align:top;">:</td><td><div>Rocket 1.2.6</div></td></tr><tr><td style="font-weight:bold;vertical-align:top;">web2py_path</td><td style="vertical-align:top;">:</td><td><div>C:\\Users\\Justin\\Documents\\GitHub\\HomeAutomation\\web2py</div></td></tr><tr><td style="font-weight:bold;vertical-align:top;">web2py_version</td><td style="vertical-align:top;">:</td><td><div>2.10.3-stable+timestamp.2015.04.02.21.42.07</div></td></tr><tr><td style="font-weight:bold;vertical-align:top;">wsgi.errors</td><td style="vertical-align:top;">:</td><td><div>&lt;open file &#x27;&lt;stderr&gt;&#x27;, mode &#x27;w&#x27; at 0x0000000001C6B150&gt;</div></td></tr><tr><td style="font-weight:bold;vertical-align:top;">wsgi.file_wrapper</td><td style="vertical-align:top;">:</td><td><div>&lt;class wsgiref.util.FileWrapper at 0x00000000032A9A08&gt;</div></td></tr><tr><td style="font-weight:bold;vertical-align:top;">wsgi.input</td><td style="vertical-align:top;">:</td><td><div>&lt;socket._fileobject object at 0x0000000003FFA840&gt;</div></td></tr><tr><td style="font-weight:bold;vertical-align:top;">wsgi.multiprocess</td><td style="vertical-align:top;">:</td><td><div>False</div></td></tr><tr><td style="font-weight:bold;vertical-align:top;">wsgi.multithread</td><td style="vertical-align:top;">:</td><td><div>True</div></td></tr><tr><td style="font-weight:bold;vertical-align:top;">wsgi.run_once</td><td style="vertical-align:top;">:</td><td><div>False</div></td></tr><tr><td style="font-weight:bold;vertical-align:top;">wsgi.url_scheme</td><td style="vertical-align:top;">:</td><td><div>http</div></td></tr><tr><td style="font-weight:bold;vertical-align:top;">wsgi.version</td><td style="vertical-align:top;">:</td><td><div><table><tr><td><div>1</div></td></tr><tr><td><div>0</div></td></tr></table></div></td></tr><tr><td style="font-weight:bold;vertical-align:top;">wsgi_errors</td><td style="vertical-align:top;">:</td><td><div>&lt;open file &#x27;&lt;stderr&gt;&#x27;, mode &#x27;w&#x27; at 0x0000000001C6B150&gt;</div></td></tr><tr><td style="font-weight:bold;vertical-align:top;">wsgi_file_wrapper</td><td style="vertical-align:top;">:</td><td><div>&lt;class wsgiref.util.FileWrapper at 0x00000000032A9A08&gt;</div></td></tr><tr><td style="font-weight:bold;vertical-align:top;">wsgi_input</td><td style="vertical-align:top;">:</td><td><div>&lt;socket._fileobject object at 0x0000000003FFA840&gt;</div></td></tr><tr><td style="font-weight:bold;vertical-align:top;">wsgi_multiprocess</td><td style="vertical-align:top;">:</td><td><div>False</div></td></tr><tr><td style="font-weight:bold;vertical-align:top;">wsgi_multithread</td><td style="vertical-align:top;">:</td><td><div>True</div></td></tr><tr><td style="font-weight:bold;vertical-align:top;">wsgi_run_once</td><td style="vertical-align:top;">:</td><td><div>False</div></td></tr><tr><td style="font-weight:bold;vertical-align:top;">wsgi_url_scheme</td><td style="vertical-align:top;">:</td><td><div>http</div></td></tr><tr><td style="font-weight:bold;vertical-align:top;">wsgi_version</td><td style="vertical-align:top;">:</td><td><div><table><tr><td><div>1</div></td></tr><tr><td><div>0</div></td></tr></table></div></td></tr></table></div></td></tr><tr><td style="font-weight:bold;vertical-align:top;">extension</td><td style="vertical-align:top;">:</td><td><div>html</div></td></tr><tr><td style="font-weight:bold;vertical-align:top;">folder</td><td style="vertical-align:top;">:</td><td><div>C:\\Users\\Justin\\Documents\\GitHub\\HomeAutomation\\web2py\\applications\\HomeAutomation\\</div></td></tr><tr><td style="font-weight:bold;vertical-align:top;">function</td><td style="vertical-align:top;">:</td><td><div>thermostat</div></td></tr><tr><td style="font-weight:bold;vertical-align:top;">global_settings</td><td style="vertical-align:top;">:</td><td><div><table><tr><td style="font-weight:bold;vertical-align:top;">app_folders</td><td style="vertical-align:top;">:</td><td><div>set([&#x27;C:\\\\Users\\\\Justin\\\\Documents\\\\GitHub\\\\HomeAutomation\\\\web2py\\\\applications\\\\HomeAutomation\\\\&#x27;, &#x27;C:\\\\Users\\\\Justin\\\\Documents\\\\GitHub\\\\HomeAutomation\\\\web2py\\\\applications\\\\admin\\\\&#x27;, &#x27;C:\\\\Users\\\\Justin\\\\Documents\\\\GitHub\\\\HomeAutomation\\\\web2py\\\\applications\\\\welcome\\\\&#x27;])</div></td></tr><tr><td style="font-weight:bold;vertical-align:top;">applications_parent</td><td style="vertical-align:top;">:</td><td><div>C:\\Users\\Justin\\Documents\\GitHub\\HomeAutomation\\web2py</div></td></tr><tr><td style="font-weight:bold;vertical-align:top;">cmd_args</td><td style="vertical-align:top;">:</td><td><div><table></table></div></td></tr><tr><td style="font-weight:bold;vertical-align:top;">cmd_options</td><td style="vertical-align:top;">:</td><td><div>&lt;Values at 0x331b748: {&#x27;verbose&#x27;: False, &#x27;ip&#x27;: &#x27;127.0.0.1&#x27;, &#x27;debuglevel&#x27;: 30, &#x27;with_scheduler&#x27;: False, &#x27;ips&#x27;: [], &#x27;shutdown_timeout&#x27;: 5, &#x27;taskbar&#x27;: False, &#x27;with_coverage&#x27;: False, &#x27;scheduler_groups&#x27;: None, &#x27;port&#x27;: 8000, &#x27;maxthreads&#x27;: None, &#x27;softcron&#x27;: False, &#x27;server_name&#x27;: &#x27;DragonJujo-TB1&#x27;, &#x27;bpython&#x27;: False, &#x27;nogui&#x27;: False, &#x27;pid_filename&#x27;: &#x27;httpserver.pid&#x27;, &#x27;print_errors&#x27;: False, &#x27;extcron&#x27;: False, &#x27;runcron&#x27;: False, &#x27;run_system_tests&#x27;: False, &#x27;test&#x27;: None, &#x27;folder&#x27;: &#x27;C:\\\\Users\\\\Justin\\\\Documents\\\\GitHub\\\\HomeAutomation\\\\web2py&#x27;, &#x27;config&#x27;: &#x27;&#x27;, &#x27;minthreads&#x27;: None, &#x27;shell&#x27;: None, &#x27;run&#x27;: &#x27;&#x27;, &#x27;log_filename&#x27;: &#x27;httpserver.log&#x27;, &#x27;profiler_dir&#x27;: None, &#x27;args&#x27;: [&#x27;&#x27;], &#x27;socket_timeout&#x27;: 5, &#x27;ssl_ca_certificate&#x27;: None, &#x27;scheduler&#x27;: None, &#x27;interfaces&#x27;: None, &#x27;ssl_private_key&#x27;: &#x27;&#x27;, &#x27;gae&#x27;: None, &#x27;password&#x27;: &#x27;&lt;ask&gt;&#x27;, &#x27;request_queue_size&#x27;: 5, &#x27;ssl_certificate&#x27;: &#x27;&#x27;, &#x27;cronjob&#x27;: False, &#x27;numthreads&#x27;: None, &#x27;quiet&#x27;: False, &#x27;import_models&#x27;: False, &#x27;timeout&#x27;: 10, &#x27;plain&#x27;: False, &#x27;nobanner&#x27;: False}&gt;</div></td></tr><tr><td style="font-weight:bold;vertical-align:top;">db_sessions</td><td style="vertical-align:top;">:</td><td><div>set([])</div></td></tr><tr><td style="font-weight:bold;vertical-align:top;">debugging</td><td style="vertical-align:top;">:</td><td><div>False</div></td></tr><tr><td style="font-weight:bold;vertical-align:top;">gluon_parent</td><td style="vertical-align:top;">:</td><td><div>C:\\Users\\Justin\\Documents\\GitHub\\HomeAutomation\\web2py</div></td></tr><tr><td style="font-weight:bold;vertical-align:top;">is_jython</td><td style="vertical-align:top;">:</td><td><div>False</div></td></tr><tr><td style="font-weight:bold;vertical-align:top;">is_pypy</td><td style="vertical-align:top;">:</td><td><div>False</div></td></tr><tr><td style="font-weight:bold;vertical-align:top;">is_source</td><td style="vertical-align:top;">:</td><td><div>True</div></td></tr><tr><td style="font-weight:bold;vertical-align:top;">local_hosts</td><td style="vertical-align:top;">:</td><td><div><table><tr><td><div>DragonJujo-TB1.osuwireless.ohio-state.edu</div></td></tr><tr><td><div>fe80::2460:2ae2:7301:a2d%8</div></td></tr><tr><td><div>2001:0:9d38:6ab8:2460:2ae2:7301:a2d</div></td></tr><tr><td><div>::ffff:127.0.0.1</div></td></tr><tr><td><div>::1</div></td></tr><tr><td><div>DragonJujo-TB1</div></td></tr><tr><td><div>172.31.42.207</div></td></tr><tr><td><div>fe80::1c00:2a19:22ef:d494%3</div></td></tr><tr><td><div>127.0.0.1</div></td></tr></table></div></td></tr><tr><td style="font-weight:bold;vertical-align:top;">web2py_version</td><td style="vertical-align:top;">:</td><td><div>2.10.3-stable+timestamp.2015.04.02.21.42.07</div></td></tr></table></div></td></tr><tr><td style="font-weight:bold;vertical-align:top;">is_https</td><td style="vertical-align:top;">:</td><td><div>False</div></td></tr><tr><td style="font-weight:bold;vertical-align:top;">is_local</td><td style="vertical-align:top;">:</td><td><div>True</div></td></tr><tr><td style="font-weight:bold;vertical-align:top;">is_restful</td><td style="vertical-align:top;">:</td><td><div>False</div></td></tr><tr><td style="font-weight:bold;vertical-align:top;">is_sheduler</td><td style="vertical-align:top;">:</td><td><div>None</div></td></tr><tr><td style="font-weight:bold;vertical-align:top;">is_shell</td><td style="vertical-align:top;">:</td><td><div>None</div></td></tr><tr><td style="font-weight:bold;vertical-align:top;">now</td><td style="vertical-align:top;">:</td><td><div>datetime.datetime(2015, 4, 9, 13, 46, 26, 721000)</div></td></tr><tr><td style="font-weight:bold;vertical-align:top;">raw_args</td><td style="vertical-align:top;">:</td><td><div></div></td></tr><tr><td style="font-weight:bold;vertical-align:top;">raw_extension</td><td style="vertical-align:top;">:</td><td><div>None</div></td></tr><tr><td style="font-weight:bold;vertical-align:top;">url</td><td style="vertical-align:top;">:</td><td><div>/HomeAutomation/settings/thermostat</div></td></tr><tr><td style="font-weight:bold;vertical-align:top;">utcnow</td><td style="vertical-align:top;">:</td><td><div>datetime.datetime(2015, 4, 9, 17, 46, 26, 721000)</div></td></tr><tr><td style="font-weight:bold;vertical-align:top;">uuid</td><td style="vertical-align:top;">:</td><td><div>HomeAutomation/127.0.0.1.2015-04-09.13-46-26.41d2d365-d0ef-4344-91bb-ecb2cbfc994f</div></td></tr><tr><td style="font-weight:bold;vertical-align:top;">wsgi</td><td style="vertical-align:top;">:</td><td><div>&lt;gluon.main.LazyWSGI object at 0x000000000360B5C0&gt;</div></td></tr></table></div>'
tRp58
sS'frames'
p59
(lp60
(dp61
S'file'
p62
S'C:\\Users\\Justin\\Documents\\GitHub\\HomeAutomation\\web2py\\gluon\\restricted.py'
p63
sS'dump'
p64
(dp65
S'environment'
p66
S"{'A': <class 'gluon.html.A'>, 'ANY_OF': <class 'gluon.validators.ANY_OF'>, 'ASSIGNJS': <function ASSIGNJS>, 'AppConfig': <function AppConfig>, 'Auth': <class 'gluon.tools.Auth'>, 'B': <class 'gluon.html.B'>, 'BEAUTIFY': <class 'gluon.html.BEAUTIFY'>, 'BODY': <class 'gluon.html.BODY'>, 'BR': <class 'gluon.html.BR'>, 'BUTTON': <class 'gluon.html.BUTTON'>, ...}"
p67
sS'ccode'
p68
S'<code object <module> at 00000000093242B0, file ...\\HomeAutomation\\controllers/settings.py", line 1>'
p69
ssS'lnum'
p70
I227
sS'lines'
p71
(dp72
I224
S'            ccode = code'
p73
sI225
S'        else:'
p74
sI226
S'            ccode = compile2(code, layer)'
p75
sI227
S'        exec ccode in environment'
p76
sI228
S'    except HTTP:'
p77
sI229
S'        raise'
p78
sI230
S'    except RestrictedError:'
p79
sI231
S'        # do not encapsulate (obfuscate) the original RestrictedError'
p80
sI222
S'    try:'
p81
sI223
S'        if isinstance(code, types.CodeType):'
p82
ssS'call'
p83
S'(code="__author__ = \'DragonJujo\'\\n# -*- coding: utf-8 -*...rs)\\n\\nresponse._vars=response._caller(thermostat)\\n", environment={\'A\': <class \'gluon.html.A\'>, \'ANY_OF\': <class \'gluon.validators.ANY_OF\'>, \'ASSIGNJS\': <function ASSIGNJS>, \'AppConfig\': <function AppConfig>, \'Auth\': <class \'gluon.tools.Auth\'>, \'B\': <class \'gluon.html.B\'>, \'BEAUTIFY\': <class \'gluon.html.BEAUTIFY\'>, \'BODY\': <class \'gluon.html.BODY\'>, \'BR\': <class \'gluon.html.BR\'>, \'BUTTON\': <class \'gluon.html.BUTTON\'>, ...}, layer=r\'C:\\Users\\Justin\\Documents\\GitHub\\HomeAutomation\\...plications\\HomeAutomation\\controllers/settings.py\')'
p84
sS'func'
p85
S'restricted'
p86
sa(dp87
g62
S'C:\\Users\\Justin\\Documents\\GitHub\\HomeAutomation\\web2py\\applications\\HomeAutomation\\controllers\\settings.py'
p88
sg64
(dp89
sg70
I90
sg71
(dp90
I79
S'        else:'
p91
sI80
S'            db.temperatures.insert(dayofweek=form.vars.dayofweek,'
p92
sI81
S'                                   timestart=form.vars.timestart,'
p93
sI82
S'                                   temperature=form.vars.temperature)'
p94
sI83
S"        redirect(URL('thermostat'))"
p95
sI84
S'    elif form.errors:'
p96
sI85
S"        response.flash = 'form is invalid'"
p97
sI86
S'    else:'
p98
sI87
S"        response.flash = 'please fill the form'"
p99
sI88
S'    return dict(form=form, vars=form.vars)'
p100
ssg83
S'()'
p101
sg85
S'<module>'
p102
sa(dp103
g62
S'C:\\Users\\Justin\\Documents\\GitHub\\HomeAutomation\\web2py\\gluon\\globals.py'
p104
sg64
(dp105
S'self'
p106
S'undefined'
p107
sS'f'
S'<function thermostat>'
p108
ssg70
I393
sg71
(dp109
I388
S"        self.flash = ''            # used by the default view layout"
p110
sI389
S'        self.meta = Storage()      # used by web2py_ajax.html'
p111
sI390
S'        self.menu = []             # used by the default view layout'
p112
sI391
S'        self.files = []            # used by web2py_ajax.html'
p113
sI392
S'        self._vars = None'
p114
sI393
S'        self._caller = lambda f: f()'
p115
sI394
S'        self._view_environment = None'
p116
sI395
S'        self._custom_commit = None'
p117
sI396
S'        self._custom_rollback = None'
p118
sI397
S"        self.generic_patterns = ['*']"
p119
ssg83
S'(f=<function thermostat>)'
p120
sg85
S'<lambda>'
p121
sa(dp122
g62
S'C:\\Users\\Justin\\Documents\\GitHub\\HomeAutomation\\web2py\\applications\\HomeAutomation\\controllers\\settings.py'
p123
sg64
(dp124
S'global SQLTABLE'
p125
S"<class 'gluon.sqlhtml.SQLTABLE'>"
p126
sS'headers'
p127
g107
sS').select'
p128
g107
sS'temps'
p129
g107
sS'db.temperatures.ALL'
p130
S'<pydal.helpers.classes.SQLALL object>'
p131
sS'global db'
p132
S'<DAL uri="sqlite://storage.sqlite">'
p133
sS'db.temperatures'
p134
S'<Table temperatures (id,dayofweek,timestart,temperature)>'
p135
ssg70
I21
sg71
(dp136
I16
S''
sI17
S'    if you need a simple wiki simply replace the two lines below with:'
p137
sI18
S'    return auth.wiki()'
p138
sI19
S'    """'
p139
sI20
S'    # response.flash = T("Hello")'
p140
sI21
S"    temps = SQLTABLE(db().select(db.temperatures.ALL), headers='fieldname:capitalize')"
p141
sI22
S"    return dict(message=T('Welcome to web2py!'), temps=temps)"
p142
sI23
S''
sI24
S''
sI25
S'def user():'
p143
ssg83
S'()'
p144
sg85
S'thermostat'
p145
sa(dp146
g62
S'C:\\Users\\Justin\\Documents\\GitHub\\HomeAutomation\\web2py\\gluon\\packages\\dal\\pydal\\objects.py'
p147
sg64
(dp148
S'self.query'
p149
S'None'
p150
sS'adapter.select'
p151
S'<bound method SQLiteAdapter.select of <pydal.adapters.sqlite.SQLiteAdapter object>>'
p152
sS'fields'
p153
S'[<pydal.objects.Field object>, <pydal.objects.Field object>, <pydal.objects.Field object>, <pydal.objects.Field object>]'
p154
sS'adapter'
p155
S'<pydal.adapters.sqlite.SQLiteAdapter object>'
p156
sS'attributes'
p157
g43
sS'self'
p158
S'<Set None>'
p159
ssg70
I2093
sg71
(dp160
I2088
S"                                    attributes.get('join',None),"
p161
sI2089
S"                                    attributes.get('left',None),"
p162
sI2090
S"                                    attributes.get('orderby',None),"
p163
sI2091
S"                                    attributes.get('groupby',None))"
p164
sI2092
S'        fields = adapter.expand_all(fields, tablenames)'
p165
sI2093
S'        return adapter.select(self.query,fields,attributes)'
p166
sI2094
S''
sI2095
S'    def nested_select(self,*fields,**attributes):'
p167
sI2096
S'        return Expression(self.db,self._select(*fields,**attributes))'
p168
sI2097
S''
ssg83
S'(self=<Set None>, *fields=[<pydal.objects.Field object>, <pydal.objects.Field object>, <pydal.objects.Field object>, <pydal.objects.Field object>], **attributes={})'
p169
sg85
S'select'
p170
sa(dp171
g62
S'C:\\Users\\Justin\\Documents\\GitHub\\HomeAutomation\\web2py\\gluon\\packages\\dal\\pydal\\adapters\\sqlite.py'
p172
sg64
(dp173
S'fields'
p174
S'[<pydal.objects.Field object>, <pydal.objects.Field object>, <pydal.objects.Field object>, <pydal.objects.Field object>]'
p175
sS'self'
p176
S'<pydal.adapters.sqlite.SQLiteAdapter object>'
p177
sS').select'
p178
S'<bound method SQLiteAdapter.select of <pydal.adapters.sqlite.SQLiteAdapter object>>'
p179
sS'attributes'
p180
g43
sS'global SQLiteAdapter'
p181
S"<class 'pydal.adapters.sqlite.SQLiteAdapter'>"
p182
sS'query'
p183
S'None'
p184
sS'builtinsuper'
p185
S"<type 'super'>"
p186
ssg70
I125
sg71
(dp187
I128
S'SPATIALLIBS = {'
p188
sI129
S"    'Windows':'libspatialite',"
p189
sI120
S'        Note that the entire database, rather than one record, is locked'
p190
sI121
S'        (it will be locked eventually anyway by the following UPDATE).'
p191
sI122
S'        """'
p192
sI123
S"        if attributes.get('for_update', False) and not 'cache' in attributes:"
p193
sI124
S"            self.execute('BEGIN IMMEDIATE TRANSACTION;')"
p194
sI125
S'        return super(SQLiteAdapter, self).select(query, fields, attributes)'
p195
sI126
S''
sI127
S''
ssg83
S'(self=<pydal.adapters.sqlite.SQLiteAdapter object>, query=None, fields=[<pydal.objects.Field object>, <pydal.objects.Field object>, <pydal.objects.Field object>, <pydal.objects.Field object>], attributes={})'
p196
sg85
g170
sa(dp197
g62
S'C:\\Users\\Justin\\Documents\\GitHub\\HomeAutomation\\web2py\\gluon\\packages\\dal\\pydal\\adapters\\base.py'
p198
sg64
(dp199
S'fields'
p200
S'[<pydal.objects.Field object>, <pydal.objects.Field object>, <pydal.objects.Field object>, <pydal.objects.Field object>]'
p201
sS'self'
p202
S'<pydal.adapters.sqlite.SQLiteAdapter object>'
p203
sS'attributes'
p204
g43
sS'self._select_aux'
p205
S'<bound method SQLiteAdapter._select_aux of <pydal.adapters.sqlite.SQLiteAdapter object>>'
p206
sS'sql'
p207
S"'SELECT  temperatures.id, temperatures.dayofweek,...tart, temperatures.temperature FROM temperatures;'"
p208
ssg70
I1240
sg71
(dp209
I1235
S'            return cache_model('
p210
sI1236
S'                key,'
p211
sI1237
S'                lambda self=self,args=args:self._select_aux(*args),'
p212
sI1238
S'                time_expire)'
p213
sI1239
S'        else:'
p214
sI1240
S'            return self._select_aux(sql,fields,attributes)'
p215
sI1241
S''
sI1242
S'    def _count(self, query, distinct=None):'
p216
sI1243
S'        tablenames = self.tables(query)'
p217
sI1244
S'        if query:'
p218
ssg83
S'(self=<pydal.adapters.sqlite.SQLiteAdapter object>, query=None, fields=[<pydal.objects.Field object>, <pydal.objects.Field object>, <pydal.objects.Field object>, <pydal.objects.Field object>], attributes={})'
p219
sg85
g170
sa(dp220
g62
S'C:\\Users\\Justin\\Documents\\GitHub\\HomeAutomation\\web2py\\gluon\\packages\\dal\\pydal\\adapters\\base.py'
p221
sg64
(dp222
S'rows'
p223
S"[(1, u'Monday', u'05:25:00', 77), (2, u'Wednesday', u'17:35:00', 65)]"
p224
sS'fields'
p225
S'[<pydal.objects.Field object>, <pydal.objects.Field object>, <pydal.objects.Field object>, <pydal.objects.Field object>]'
p226
sS'self'
p227
S'<pydal.adapters.sqlite.SQLiteAdapter object>'
p228
sS'cacheable'
p229
S'False'
p230
sS'self._colnames'
p231
S"['temperatures.id', 'temperatures.dayofweek', 'temperatures.timestart', 'temperatures.temperature']"
p232
sS'processor'
p233
S'<bound method SQLiteAdapter.parse of <pydal.adapters.sqlite.SQLiteAdapter object>>'
p234
ssg70
I1221
sg71
(dp235
I1216
S'            rows = list(rows)'
p236
sI1217
S"        limitby = args_get('limitby', None) or (0,)"
p237
sI1218
S'        rows = self.rowslice(rows,limitby[0],None)'
p238
sI1219
S"        processor = args_get('processor',self.parse)"
p239
sI1220
S"        cacheable = args_get('cacheable',False)"
p240
sI1221
S'        return processor(rows,fields,self._colnames,cacheable=cacheable)'
p241
sI1222
S''
sI1223
S'    def select(self, query, fields, attributes):'
p242
sI1224
S'        """'
p243
sI1225
S'        Always returns a Rows object, possibly empty.'
p244
ssg83
S"(self=<pydal.adapters.sqlite.SQLiteAdapter object>, sql='SELECT  temperatures.id, temperatures.dayofweek,...tart, temperatures.temperature FROM temperatures;', fields=[<pydal.objects.Field object>, <pydal.objects.Field object>, <pydal.objects.Field object>, <pydal.objects.Field object>], attributes={})"
p245
sg85
S'_select_aux'
p246
sa(dp247
g62
S'C:\\Users\\Justin\\Documents\\GitHub\\HomeAutomation\\web2py\\gluon\\packages\\dal\\pydal\\adapters\\base.py'
p248
sg64
(dp249
S'colset'
p250
g107
sS'tablename'
p251
S"'temperatures'"
p252
sS'builtinNone'
p253
S'None'
p254
sS'new_row'
p255
S'<Row {}>'
p256
sS'new_row.get'
p257
S'<bound method Row.get of <Row {}>>'
p258
ssg70
I1598
sg71
(dp259
I1600
S'                        colset = new_row[tablename] = Row()'
p260
sI1601
S'                        if tablename not in virtualtables:'
p261
sI1602
S'                            virtualtables.append(tablename)'
p262
sI1593
S'            for (j,colname) in enumerate(colnames):'
p263
sI1594
S'                value = row[j]'
p264
sI1595
S'                tmp = tmps[j]'
p265
sI1596
S'                if tmp:'
p266
sI1597
S'                    (tablename,fieldname,table,field,ft) = tmp'
p267
sI1598
S'                    colset = new_row.get(tablename, None)'
p268
sI1599
S'                    if colset is None:'
p269
ssg83
S"(self=<pydal.adapters.sqlite.SQLiteAdapter object>, rows=[(1, u'Monday', u'05:25:00', 77), (2, u'Wednesday', u'17:35:00', 65)], fields=[<pydal.objects.Field object>, <pydal.objects.Field object>, <pydal.objects.Field object>, <pydal.objects.Field object>], colnames=['temperatures.id', 'temperatures.dayofweek', 'temperatures.timestart', 'temperatures.temperature'], blob_decode=True, cacheable=False)"
p270
sg85
S'parse'
p271
sa(dp272
g62
S'C:\\Users\\Justin\\Documents\\GitHub\\HomeAutomation\\web2py\\gluon\\packages\\dal\\pydal\\objects.py'
p273
sg64
(dp274
S'self.__getitem__'
p275
S'<bound method Row.__getitem__ of <Row {}>>'
p276
sS'self'
p277
S'<Row {}>'
p278
sS'key'
p279
S"'temperatures'"
p280
ssg70
I97
sg71
(dp281
I96
S'        try:'
p282
sI97
S'            return self.__getitem__(key)'
p283
sI98
S'        except(KeyError, AttributeError, TypeError):'
p284
sI99
S'            return self.__dict__.get(key,default)'
p285
sI100
S''
sI101
S'    has_key = __contains__ = lambda self, key: key in self.__dict__'
p286
sI92
S'    __call__ = __getitem__'
p287
sI93
S''
sI94
S''
sI95
S'    def get(self, key, default=None):'
p288
ssg83
S"(self=<Row {}>, key='temperatures', default=None)"
p289
sg85
S'get'
p290
sa(dp291
g62
S'C:\\Users\\Justin\\Documents\\GitHub\\HomeAutomation\\web2py\\gluon\\packages\\dal\\pydal\\objects.py'
p292
sg64
(dp293
S'ae'
p294
g107
sS'builtinTypeError'
p295
S"<type 'exceptions.TypeError'>"
p296
sS'builtinAttributeError'
p297
S"<type 'exceptions.AttributeError'>"
p298
sS'builtinKeyError'
p299
S"<type 'exceptions.KeyError'>"
p300
ssg70
I79
sg71
(dp301
I74
S'                return ogetattr(self, m.group(1))[m.group(2)]'
p302
sI75
S'            except (KeyError, AttributeError, TypeError):'
p303
sI76
S'                key = m.group(2)'
p304
sI77
S'        try:'
p305
sI78
S'            return ogetattr(self, key)'
p306
sI79
S'        except (KeyError, AttributeError, TypeError), ae:'
p307
sI80
S'            try:'
p308
sI81
S"                self[key] = ogetattr(self,'__get_lazy_reference__')(key)"
p309
sI82
S'                return self[key]'
p310
sI83
S'            except:'
p311
ssg83
S"(self=<Row {}>, k='temperatures')"
p312
sg85
g20
sasS'pyver'
p313
S'Python 2.7.9: C:\\Python27\\python.exe (prefix: C:\\Python27)'
p314
sS'session'
p315
g57
(S's\x1a\x00\x00\x00<div><table></table></div>'
tRp316
sS'etype'
p317
S"<type 'exceptions.NameError'>"
p318
sS'date'
p319
S'Thu Apr 09 13:46:26 2015'
p320
sS'response'
p321
g57
(S'st@\x00\x00<div><table><tr><td style="font-weight:bold;vertical-align:top;">body</td><td style="vertical-align:top;">:</td><td><div>&lt;cStringIO.StringO object at 0x0000000004004C70&gt;</div></td></tr><tr><td style="font-weight:bold;vertical-align:top;">cookies</td><td style="vertical-align:top;">:</td><td><div><table><tr><td style="font-weight:bold;vertical-align:top;">session_id_homeautomation</td><td style="vertical-align:top;">:</td><td><div>127.0.0.1-a6246a37-0935-419f-8625-118ee9487c9b<table><tr><td style="font-weight:bold;vertical-align:top;">comment</td><td style="vertical-align:top;">:</td><td><div></div></td></tr><tr><td style="font-weight:bold;vertical-align:top;">domain</td><td style="vertical-align:top;">:</td><td><div></div></td></tr><tr><td style="font-weight:bold;vertical-align:top;">expires</td><td style="vertical-align:top;">:</td><td><div></div></td></tr><tr><td style="font-weight:bold;vertical-align:top;">httponly</td><td style="vertical-align:top;">:</td><td><div></div></td></tr><tr><td style="font-weight:bold;vertical-align:top;">max-age</td><td style="vertical-align:top;">:</td><td><div></div></td></tr><tr><td style="font-weight:bold;vertical-align:top;">path</td><td style="vertical-align:top;">:</td><td><div>/</div></td></tr><tr><td style="font-weight:bold;vertical-align:top;">secure</td><td style="vertical-align:top;">:</td><td><div></div></td></tr><tr><td style="font-weight:bold;vertical-align:top;">version</td><td style="vertical-align:top;">:</td><td><div></div></td></tr></table></div></td></tr></table></div></td></tr><tr><td style="font-weight:bold;vertical-align:top;">delimiters</td><td style="vertical-align:top;">:</td><td><div><table><tr><td><div>{{</div></td></tr><tr><td><div>}}</div></td></tr></table></div></td></tr><tr><td style="font-weight:bold;vertical-align:top;">files</td><td style="vertical-align:top;">:</td><td><div><table></table></div></td></tr><tr><td style="font-weight:bold;vertical-align:top;">flash</td><td style="vertical-align:top;">:</td><td><div></div></td></tr><tr><td style="font-weight:bold;vertical-align:top;">form_label_separator</td><td style="vertical-align:top;">:</td><td><div></div></td></tr><tr><td style="font-weight:bold;vertical-align:top;">formstyle</td><td style="vertical-align:top;">:</td><td><div>bootstrap3_inline</div></td></tr><tr><td style="font-weight:bold;vertical-align:top;">generic_patterns</td><td style="vertical-align:top;">:</td><td><div><table><tr><td><div>*</div></td></tr></table></div></td></tr><tr><td style="font-weight:bold;vertical-align:top;">google_analytics_id</td><td style="vertical-align:top;">:</td><td><div>None</div></td></tr><tr><td style="font-weight:bold;vertical-align:top;">headers</td><td style="vertical-align:top;">:</td><td><div><table><tr><td style="font-weight:bold;vertical-align:top;">X-Powered-By</td><td style="vertical-align:top;">:</td><td><div>web2py</div></td></tr></table></div></td></tr><tr><td style="font-weight:bold;vertical-align:top;">logo</td><td style="vertical-align:top;">:</td><td><div><a class="navbar-brand" href="http://www.web2py.com/" id="web2py-logo"><b>web<span>2</span>py</b>&trade;&nbsp;</a></div></td></tr><tr><td style="font-weight:bold;vertical-align:top;">menu</td><td style="vertical-align:top;">:</td><td><div><table><tr><td><div><table><tr><td><div>Home</div></td></tr><tr><td><div>False</div></td></tr><tr><td><div>/HomeAutomation/default/index</div></td></tr><tr><td><div><table></table></div></td></tr></table></div></td></tr><tr><td><div><table><tr><td><div>My Sites</div></td></tr><tr><td><div>False</div></td></tr><tr><td><div>/admin/default/site</div></td></tr></table></div></td></tr><tr><td><div><table><tr><td><div>This App</div></td></tr><tr><td><div>False</div></td></tr><tr><td><div>#</div></td></tr><tr><td><div><table><tr><td><div><table><tr><td><div>Design</div></td></tr><tr><td><div>False</div></td></tr><tr><td><div>/admin/default/design/HomeAutomation</div></td></tr></table></div></td></tr><tr><td><div><li class="divider"></li></div></td></tr><tr><td><div><table><tr><td><div>Controller</div></td></tr><tr><td><div>False</div></td></tr><tr><td><div>/admin/default/edit/HomeAutomation/controllers/settings.py</div></td></tr></table></div></td></tr><tr><td><div><table><tr><td><div>View</div></td></tr><tr><td><div>False</div></td></tr><tr><td><div>/admin/default/edit/HomeAutomation/views/settings/thermostat.html</div></td></tr></table></div></td></tr><tr><td><div><table><tr><td><div>DB Model</div></td></tr><tr><td><div>False</div></td></tr><tr><td><div>/admin/default/edit/HomeAutomation/models/db.py</div></td></tr></table></div></td></tr><tr><td><div><table><tr><td><div>Menu Model</div></td></tr><tr><td><div>False</div></td></tr><tr><td><div>/admin/default/edit/HomeAutomation/models/menu.py</div></td></tr></table></div></td></tr><tr><td><div><table><tr><td><div>Config.ini</div></td></tr><tr><td><div>False</div></td></tr><tr><td><div>/admin/default/edit/HomeAutomation/private/appconfig.ini</div></td></tr></table></div></td></tr><tr><td><div><table><tr><td><div>Layout</div></td></tr><tr><td><div>False</div></td></tr><tr><td><div>/admin/default/edit/HomeAutomation/views/layout.html</div></td></tr></table></div></td></tr><tr><td><div><table><tr><td><div>Stylesheet</div></td></tr><tr><td><div>False</div></td></tr><tr><td><div>/admin/default/edit/HomeAutomation/static/css/web2py-bootstrap3.css</div></td></tr></table></div></td></tr><tr><td><div><table><tr><td><div>Database</div></td></tr><tr><td><div>False</div></td></tr><tr><td><div>/HomeAutomation/appadmin/index</div></td></tr></table></div></td></tr><tr><td><div><table><tr><td><div>Errors</div></td></tr><tr><td><div>False</div></td></tr><tr><td><div>/admin/default/errors/HomeAutomation</div></td></tr></table></div></td></tr><tr><td><div><table><tr><td><div>About</div></td></tr><tr><td><div>False</div></td></tr><tr><td><div>/admin/default/about/HomeAutomation</div></td></tr></table></div></td></tr></table></div></td></tr></table></div></td></tr><tr><td><div><table><tr><td><div>web2py.com</div></td></tr><tr><td><div>False</div></td></tr><tr><td><div>#</div></td></tr><tr><td><div><table><tr><td><div><table><tr><td><div>Download</div></td></tr><tr><td><div>False</div></td></tr><tr><td><div>http://www.web2py.com/examples/default/download</div></td></tr></table></div></td></tr><tr><td><div><table><tr><td><div>Support</div></td></tr><tr><td><div>False</div></td></tr><tr><td><div>http://www.web2py.com/examples/default/support</div></td></tr></table></div></td></tr><tr><td><div><table><tr><td><div>Demo</div></td></tr><tr><td><div>False</div></td></tr><tr><td><div>http://web2py.com/demo_admin</div></td></tr></table></div></td></tr><tr><td><div><table><tr><td><div>Quick Examples</div></td></tr><tr><td><div>False</div></td></tr><tr><td><div>http://web2py.com/examples/default/examples</div></td></tr></table></div></td></tr><tr><td><div><table><tr><td><div>FAQ</div></td></tr><tr><td><div>False</div></td></tr><tr><td><div>http://web2py.com/AlterEgo</div></td></tr></table></div></td></tr><tr><td><div><table><tr><td><div>Videos</div></td></tr><tr><td><div>False</div></td></tr><tr><td><div>http://www.web2py.com/examples/default/videos/</div></td></tr></table></div></td></tr><tr><td><div><table><tr><td><div>Free Applications</div></td></tr><tr><td><div>False</div></td></tr><tr><td><div>http://web2py.com/appliances</div></td></tr></table></div></td></tr><tr><td><div><table><tr><td><div>Plugins</div></td></tr><tr><td><div>False</div></td></tr><tr><td><div>http://web2py.com/plugins</div></td></tr></table></div></td></tr><tr><td><div><table><tr><td><div>Recipes</div></td></tr><tr><td><div>False</div></td></tr><tr><td><div>http://web2pyslices.com/</div></td></tr></table></div></td></tr></table></div></td></tr></table></div></td></tr><tr><td><div><table><tr><td><div>Documentation</div></td></tr><tr><td><div>False</div></td></tr><tr><td><div>#</div></td></tr><tr><td><div><table><tr><td><div><table><tr><td><div>Online book</div></td></tr><tr><td><div>False</div></td></tr><tr><td><div>http://www.web2py.com/book</div></td></tr></table></div></td></tr><tr><td><div><li class="divider"></li></div></td></tr><tr><td><div><table><tr><td><div>Preface</div></td></tr><tr><td><div>False</div></td></tr><tr><td><div>http://www.web2py.com/book/default/chapter/00</div></td></tr></table></div></td></tr><tr><td><div><table><tr><td><div>Introduction</div></td></tr><tr><td><div>False</div></td></tr><tr><td><div>http://www.web2py.com/book/default/chapter/01</div></td></tr></table></div></td></tr><tr><td><div><table><tr><td><div>Python</div></td></tr><tr><td><div>False</div></td></tr><tr><td><div>http://www.web2py.com/book/default/chapter/02</div></td></tr></table></div></td></tr><tr><td><div><table><tr><td><div>Overview</div></td></tr><tr><td><div>False</div></td></tr><tr><td><div>http://www.web2py.com/book/default/chapter/03</div></td></tr></table></div></td></tr><tr><td><div><table><tr><td><div>The Core</div></td></tr><tr><td><div>False</div></td></tr><tr><td><div>http://www.web2py.com/book/default/chapter/04</div></td></tr></table></div></td></tr><tr><td><div><table><tr><td><div>The Views</div></td></tr><tr><td><div>False</div></td></tr><tr><td><div>http://www.web2py.com/book/default/chapter/05</div></td></tr></table></div></td></tr><tr><td><div><table><tr><td><div>Database</div></td></tr><tr><td><div>False</div></td></tr><tr><td><div>http://www.web2py.com/book/default/chapter/06</div></td></tr></table></div></td></tr><tr><td><div><table><tr><td><div>Forms and Validators</div></td></tr><tr><td><div>False</div></td></tr><tr><td><div>http://www.web2py.com/book/default/chapter/07</div></td></tr></table></div></td></tr><tr><td><div><table><tr><td><div>Email and SMS</div></td></tr><tr><td><div>False</div></td></tr><tr><td><div>http://www.web2py.com/book/default/chapter/08</div></td></tr></table></div></td></tr><tr><td><div><table><tr><td><div>Access Control</div></td></tr><tr><td><div>False</div></td></tr><tr><td><div>http://www.web2py.com/book/default/chapter/09</div></td></tr></table></div></td></tr><tr><td><div><table><tr><td><div>Services</div></td></tr><tr><td><div>False</div></td></tr><tr><td><div>http://www.web2py.com/book/default/chapter/10</div></td></tr></table></div></td></tr><tr><td><div><table><tr><td><div>Ajax Recipes</div></td></tr><tr><td><div>False</div></td></tr><tr><td><div>http://www.web2py.com/book/default/chapter/11</div></td></tr></table></div></td></tr><tr><td><div><table><tr><td><div>Components and Plugins</div></td></tr><tr><td><div>False</div></td></tr><tr><td><div>http://www.web2py.com/book/default/chapter/12</div></td></tr></table></div></td></tr><tr><td><div><table><tr><td><div>Deployment Recipes</div></td></tr><tr><td><div>False</div></td></tr><tr><td><div>http://www.web2py.com/book/default/chapter/13</div></td></tr></table></div></td></tr><tr><td><div><table><tr><td><div>Other Recipes</div></td></tr><tr><td><div>False</div></td></tr><tr><td><div>http://www.web2py.com/book/default/chapter/14</div></td></tr></table></div></td></tr><tr><td><div><table><tr><td><div>Helping web2py</div></td></tr><tr><td><div>False</div></td></tr><tr><td><div>http://www.web2py.com/book/default/chapter/15</div></td></tr></table></div></td></tr><tr><td><div><table><tr><td><div>Buy web2py\'s book</div></td></tr><tr><td><div>False</div></td></tr><tr><td><div>http://stores.lulu.com/web2py</div></td></tr></table></div></td></tr></table></div></td></tr></table></div></td></tr><tr><td><div><table><tr><td><div>Community</div></td></tr><tr><td><div>False</div></td></tr><tr><td><div>None</div></td></tr><tr><td><div><table><tr><td><div><table><tr><td><div>Groups</div></td></tr><tr><td><div>False</div></td></tr><tr><td><div>http://www.web2py.com/examples/default/usergroups</div></td></tr></table></div></td></tr><tr><td><div><table><tr><td><div>Twitter</div></td></tr><tr><td><div>False</div></td></tr><tr><td><div>http://twitter.com/web2py</div></td></tr></table></div></td></tr><tr><td><div><table><tr><td><div>Live Chat</div></td></tr><tr><td><div>False</div></td></tr><tr><td><div>http://webchat.freenode.net/?channels=web2py</div></td></tr></table></div></td></tr></table></div></td></tr></table></div></td></tr></table></div></td></tr><tr><td style="font-weight:bold;vertical-align:top;">meta</td><td style="vertical-align:top;">:</td><td><div><table><tr><td style="font-weight:bold;vertical-align:top;">author</td><td style="vertical-align:top;">:</td><td><div>Your Name &lt;you@example.com&gt;</div></td></tr><tr><td style="font-weight:bold;vertical-align:top;">description</td><td style="vertical-align:top;">:</td><td><div>a cool new app</div></td></tr><tr><td style="font-weight:bold;vertical-align:top;">generator</td><td style="vertical-align:top;">:</td><td><div>Web2py Web Framework</div></td></tr><tr><td style="font-weight:bold;vertical-align:top;">keywords</td><td style="vertical-align:top;">:</td><td><div>web2py, python, framework</div></td></tr></table></div></td></tr><tr><td style="font-weight:bold;vertical-align:top;">models_to_run</td><td style="vertical-align:top;">:</td><td><div><table><tr><td><div>^\\w+\\.py$</div></td></tr><tr><td><div>^settings/\\w+\\.py$</div></td></tr><tr><td><div>^settings/thermostat/\\w+\\.py$</div></td></tr></table></div></td></tr><tr><td style="font-weight:bold;vertical-align:top;">postprocessing</td><td style="vertical-align:top;">:</td><td><div><table></table></div></td></tr><tr><td style="font-weight:bold;vertical-align:top;">session_client</td><td style="vertical-align:top;">:</td><td><div>127.0.0.1</div></td></tr><tr><td style="font-weight:bold;vertical-align:top;">session_cookie_compression_level</td><td style="vertical-align:top;">:</td><td><div>None</div></td></tr><tr><td style="font-weight:bold;vertical-align:top;">session_cookie_expires</td><td style="vertical-align:top;">:</td><td><div>None</div></td></tr><tr><td style="font-weight:bold;vertical-align:top;">session_cookie_key</td><td style="vertical-align:top;">:</td><td><div>None</div></td></tr><tr><td style="font-weight:bold;vertical-align:top;">session_data_name</td><td style="vertical-align:top;">:</td><td><div>session_data_homeautomation</div></td></tr><tr><td style="font-weight:bold;vertical-align:top;">session_file</td><td style="vertical-align:top;">:</td><td><div>&lt;open file &#x27;C:\\\\Users\\\\Justin\\\\Documents\\\\GitHub\\\\HomeAutomation\\\\web2py\\\\applications\\\\HomeAutomation\\\\sessions\\\\161\\\\06b\\\\127.0.0.1-a6246a37-0935-419f-8625-118ee9487c9b&#x27;, mode &#x27;rb+&#x27; at 0x0000000003F4DED0&gt;</div></td></tr><tr><td style="font-weight:bold;vertical-align:top;">session_filename</td><td style="vertical-align:top;">:</td><td><div>C:\\Users\\Justin\\Documents\\GitHub\\HomeAutomation\\web2py\\applications\\HomeAutomation\\sessions\\127.0.0.1-a6246a37-0935-419f-8625-118ee9487c9b</div></td></tr><tr><td style="font-weight:bold;vertical-align:top;">session_hash</td><td style="vertical-align:top;">:</td><td><div>248d591a0ed1d08ee7b71e5d0ca51a39</div></td></tr><tr><td style="font-weight:bold;vertical-align:top;">session_id</td><td style="vertical-align:top;">:</td><td><div>127.0.0.1-a6246a37-0935-419f-8625-118ee9487c9b</div></td></tr><tr><td style="font-weight:bold;vertical-align:top;">session_id_name</td><td style="vertical-align:top;">:</td><td><div>session_id_homeautomation</div></td></tr><tr><td style="font-weight:bold;vertical-align:top;">session_locked</td><td style="vertical-align:top;">:</td><td><div>True</div></td></tr><tr><td style="font-weight:bold;vertical-align:top;">session_masterapp</td><td style="vertical-align:top;">:</td><td><div>HomeAutomation</div></td></tr><tr><td style="font-weight:bold;vertical-align:top;">session_new</td><td style="vertical-align:top;">:</td><td><div>False</div></td></tr><tr><td style="font-weight:bold;vertical-align:top;">session_storage_type</td><td style="vertical-align:top;">:</td><td><div>file</div></td></tr><tr><td style="font-weight:bold;vertical-align:top;">status</td><td style="vertical-align:top;">:</td><td><div>200</div></td></tr><tr><td style="font-weight:bold;vertical-align:top;">subtitle</td><td style="vertical-align:top;">:</td><td><div></div></td></tr><tr><td style="font-weight:bold;vertical-align:top;">title</td><td style="vertical-align:top;">:</td><td><div>Homeautomation</div></td></tr><tr><td style="font-weight:bold;vertical-align:top;">view</td><td style="vertical-align:top;">:</td><td><div>settings/thermostat.html</div></td></tr></table></div>'
tRp322
sS'locals'
p323
(dp324
S'k'
S"'temperatures'"
p325
sS'm'
S'None'
p326
sS'_extra'
p327
S'None'
p328
sS'key'
p329
S"'temperatures'"
p330
sS'self'
p331
S'<Row {}>'
p332
sssS'traceback'
p333
S'Traceback (most recent call last):\n  File "C:\\Users\\Justin\\Documents\\GitHub\\HomeAutomation\\web2py\\gluon\\restricted.py", line 227, in restricted\n    exec ccode in environment\n  File "C:\\Users\\Justin\\Documents\\GitHub\\HomeAutomation\\web2py\\applications\\HomeAutomation\\controllers/settings.py", line 90, in <module>\n  File "C:\\Users\\Justin\\Documents\\GitHub\\HomeAutomation\\web2py\\gluon\\globals.py", line 393, in <lambda>\n    self._caller = lambda f: f()\n  File "C:\\Users\\Justin\\Documents\\GitHub\\HomeAutomation\\web2py\\applications\\HomeAutomation\\controllers/settings.py", line 21, in thermostat\n    temps = SQLTABLE(db().select(db.temperatures.ALL), headers=\'fieldname:capitalize\')\n  File "C:\\Users\\Justin\\Documents\\GitHub\\HomeAutomation\\web2py\\gluon\\packages\\dal\\pydal\\objects.py", line 2093, in select\n    return adapter.select(self.query,fields,attributes)\n  File "C:\\Users\\Justin\\Documents\\GitHub\\HomeAutomation\\web2py\\gluon\\packages\\dal\\pydal\\adapters\\sqlite.py", line 125, in select\n    return super(SQLiteAdapter, self).select(query, fields, attributes)\n  File "C:\\Users\\Justin\\Documents\\GitHub\\HomeAutomation\\web2py\\gluon\\packages\\dal\\pydal\\adapters\\base.py", line 1240, in select\n    return self._select_aux(sql,fields,attributes)\n  File "C:\\Users\\Justin\\Documents\\GitHub\\HomeAutomation\\web2py\\gluon\\packages\\dal\\pydal\\adapters\\base.py", line 1221, in _select_aux\n    return processor(rows,fields,self._colnames,cacheable=cacheable)\n  File "C:\\Users\\Justin\\Documents\\GitHub\\HomeAutomation\\web2py\\gluon\\packages\\dal\\pydal\\adapters\\base.py", line 1598, in parse\n    colset = new_row.get(tablename, None)\n  File "C:\\Users\\Justin\\Documents\\GitHub\\HomeAutomation\\web2py\\gluon\\packages\\dal\\pydal\\objects.py", line 97, in get\n    return self.__getitem__(key)\n  File "C:\\Users\\Justin\\Documents\\GitHub\\HomeAutomation\\web2py\\gluon\\packages\\dal\\pydal\\objects.py", line 79, in __getitem__\n    except (KeyError, AttributeError, TypeError), ae:\nNameError: global name \'ae\' is not defined\n'
p334
s.